c__builtin__
set
p0
((lp1
S'http://www.foxnews.com/transcript/2015/12/17/krauthammer-slams-obama-mechanical-tone-on-terror-coach-suing-school-for/'
p2
aS'http://www.foxnews.com/transcript/2014/09/12/exclusive-james-foley-brother-speaks-out/'
p3
aS'http://www.foxnews.com/transcript/2015/01/22/did-obama-state-union-fall-flat-on-immigration/'
p4
aS'http://www.foxnews.com/transcript/2015/10/16/fbi-reportedly-upset-with-obama-over-clinton-server-scandal-krauthammer-calls/'
p5
aS'http://www.foxnews.com/transcript/2016/07/07/gowdy-false-statements-proved-clinton-intent-chaffetz-asks-fbi-to-investigate/'
p6
aS'http://www.foxnews.com/transcript/2015/11/19/fbi-agents-tracking-potential-copycat-terrorists-rubio-senate-dems-will-back/'
p7
aS'http://www.foxnews.com/transcript/2015/01/21/sen-ted-cruz-slams-obama-state-union-talking-points/'
p8
aS'http://www.foxnews.com/transcript/2016/04/18/inside-scotus-immigration-hearing-giuliani-explains-trump-support-sharon-tate/'
p9
aS'http://www.foxnews.com/transcript/2015/09/11/exclusive-americans-who-prevented-train-attack-speak-out-on-kelly-file/'
p10
aS'http://www.foxnews.com/transcript/2014/10/23/brown-family-attorney-reacts-to-new-autopsy-report/'
p11
aS'http://www.foxnews.com/transcript/2016/01/31/iowa-gop-chair-expects-record-caucus-turnout-drama-rand-paul-predicts-big/'
p12
aS'http://www.foxnews.com/transcript/2015/02/13/state-department-addresses-volatile-situation-in-yemen/'
p13
aS'http://www.foxnews.com/transcript/2013/12/03/ben-labolt-we-will-see-accountability-health-care-site'
p14
aS'http://www.foxnews.com/transcript/2015/11/18/counterterror-instructor-isis-warning-dont-wait-for-uncle-sam-to-protect/'
p15
aS'http://www.foxnews.com/transcript/2016/05/25/trump-takes-heat-for-mentioning-vince-foster-suicide-sanders-campaign-dnc-chair/'
p16
aS'http://www.foxnews.com/transcript/2016/05/02/new-low-for-left-at-anti-trump-protests-eric-trump-on-his-father-chances-in/'
p17
aS'http://www.foxnews.com/transcript/2016/06/03/why-wont-liberals-aggressively-condemn-violent-protests-report-terror-suspects/'
p18
aS'http://www.foxnews.com/transcript/2014/10/07/why-cant-government-stop-us-jihadists/'
p19
aS'http://www.foxnews.com/transcript/2013/11/29/kelly-file-salutes-greatest-generation'
p20
aS'http://www.foxnews.com/transcript/2016/04/28/cruz-reacts-to-boehner-attacks-dont-know-guy-nc-governor-responds-to-bathroom/'
p21
aS'http://www.foxnews.com/transcript/2014/07/01/exclusive-megyn-kelly-goes-one-one-bill-ayers'
p22
aS'http://www.foxnews.com/transcript/2014/12/30/new-front-in-battle-between-nypd-and-nyc-mayor/'
p23
aS'http://www.foxnews.com/transcript/2015/05/28/new-questions-facing-district-attorney-in-freddie-gray-case/'
p24
aS'http://www.foxnews.com/transcript/2015/03/06/hillary-clinton-credibility-questioned-over-private-emails/'
p25
aS'http://www.foxnews.com/transcript/2015/08/07/fox-news-republican-debate-voter-verdict/'
p26
aS'http://www.foxnews.com/transcript/2015/06/03/should-police-chief-be-fired-for-releasing-josh-duggar-juvenile-record/'
p27
aS'http://www.foxnews.com/transcript/2014/12/08/former-nyc-police-commissioner-brooklyn-president-on-controversy-over-cop/'
p28
aS'http://www.foxnews.com/transcript/2015/03/03/exclusive-mike-huckabee-reacts-to-obama-netanyahu-fallout/'
p29
aS'http://www.foxnews.com/transcript/2015/11/24/gen-flynn-discusses-intelligence-obama-received-on-isis-carson-addresses/'
p30
aS'http://www.foxnews.com/transcript/2014/05/19/glenn-greenwald-reveals-details-encounter-snowden'
p31
aS'http://www.foxnews.com/transcript/2015/02/03/is-carly-fiorina-republicans-2016-dark-horse/'
p32
aS'http://www.foxnews.com/transcript/2015/02/11/sen-marco-rubio-goal-here-is-to-defeat-isil/'
p33
aS'http://www.foxnews.com/transcript/2014/09/17/obama-facing-confidence-crisis-in-isis-fight/'
p34
aS'http://www.foxnews.com/transcript/2014/07/09/america-producer-gerald-molen-fires-back-costco-pulling-dsouza-book'
p35
aS'http://www.foxnews.com/transcript/2016/07/27/paul-manafort-trump-didnt-encourage-anybody-to-hack/'
p36
aS'http://www.foxnews.com/transcript/2015/12/08/media-reaction-to-muslim-ban-overshadows-terror-attack-new-questions-about/'
p37
aS'http://www.foxnews.com/transcript/2015/08/05/how-significant-is-first-gop-debate-rubio-responds-to-dip-in-poll-numbers/'
p38
aS'http://www.foxnews.com/transcript/2015/06/02/new-fallout-over-obama-remarks-about-his-legacy/'
p39
aS'http://www.foxnews.com/transcript/2015/09/08/family-research-council-defends-kim-davis-carson-fires-back-at-trump/'
p40
aS'http://www.foxnews.com/transcript/2013/11/04/texas-businessman-sells-company-because-obamacare'
p41
aS'http://www.foxnews.com/transcript/2014/11/14/exclusive-st-louis-police-chief-calls-for-calm-in-ferguson/'
p42
aS'http://www.foxnews.com/transcript/2016/06/21/is-trump-in-trouble-with-christian-voters-former-extremist-shares-thoughts-on/'
p43
aS'http://www.foxnews.com/transcript/2016/02/10/what-victories-for-sanders-trump-in-new-hampshire-mean-for-2016-race/'
p44
aS'http://www.foxnews.com/transcript/2015/06/01/kelly-file-special-america-finest-under-fire/'
p45
aS'http://www.foxnews.com/transcript/2015/12/11/is-white-house-willfully-misidentifying-terror-threats-muslim-community-leader/'
p46
aS'http://www.foxnews.com/transcript/2013/12/19/sen-johnson-defends-vote-budget-deal'
p47
aS'http://www.foxnews.com/transcript/2014/12/18/rep-mario-diaz-balart-slams-obama-cuba-decision/'
p48
aS'http://www.foxnews.com/transcript/2015/03/02/carly-fiorina-takes-on-hillary-clinton-at-cpac/'
p49
aS'http://www.foxnews.com/transcript/2014/12/15/don-arias-hypocritical-cia-report-was-not-necessary/'
p50
aS'http://www.foxnews.com/transcript/2015/09/30/rubio-talks-putin-power-play-in-syria-huckabee-reacts-to-kim-davis-meeting-pope/'
p51
aS'http://www.foxnews.com/transcript/2016/06/27/huckabee-reacts-to-trump-campaign-fight-with-sen-warren-new-calls-to/'
p52
aS'http://www.foxnews.com/transcript/2015/06/16/reporter-barred-by-clinton-campaign-speaks-out-rachel-dolezal-parents-tell/'
p53
aS'http://www.foxnews.com/transcript/2016/02/17/bush-haley-endorsement-may-not-matter-for-rubio-gingrich-trump-would-face/'
p54
aS'http://www.foxnews.com/transcript/2014/08/19/michael-brown-family-attorney-discusses-autopsy-results'
p55
aS'http://www.foxnews.com/transcript/2015/11/10/is-there-carson-media-double-standard-clinton-camp-caught-in-fiorina-firestorm/'
p56
aS'http://www.foxnews.com/transcript/2015/10/02/students-say-oregon-campus-gunman-targeted-christians-general-flynn-accuses/'
p57
aS'http://www.foxnews.com/transcript/2016/07/16/what-know-about-terrorist-behind-nice-attack-james-woolsey-on-fallout-from/'
p58
aS'http://www.foxnews.com/transcript/2015/02/02/pentagon-working-to-mitigate-threat-posed-by-taliban-5/'
p59
aS'http://www.foxnews.com/transcript/2014/02/27/sen-mcconnell-blasts-harry-reids-unacceptable-rhetoric'
p60
aS'http://www.foxnews.com/transcript/2014/08/04/ambassador-michael-oren-future-gaza-fighting'
p61
aS'http://www.foxnews.com/transcript/2015/10/15/fiorina-reflects-on-state-campaign-charles-koch-opens-up-on-classical-liberal/'
p62
aS'http://www.foxnews.com/transcript/2015/08/10/megyn-kelly-addresses-donald-trump-debate-controversy-on-kelly-file/'
p63
aS'http://www.foxnews.com/transcript/2015/02/20/giuliani-doubles-down-on-obama-criticism-on-kelly-file/'
p64
aS'http://www.foxnews.com/transcript/2016/02/25/american-voters-explain-why-are-mad-as-hell-in-2016/'
p65
aS'http://www.foxnews.com/transcript/2015/10/13/new-fallout-over-obama-remarks-on-religion-media-too-quick-to-attack-carson/'
p66
aS'http://www.foxnews.com/transcript/2015/04/24/scott-walker-supporters-claim-police-raided-homes-over-politics/'
p67
aS'http://www.foxnews.com/transcript/2015/07/28/race-to-make-first-gop-debate-heating-up-should-mike-huckabee-apologize-for-his/'
p68
aS'http://www.foxnews.com/transcript/2013/11/21/fournier-defends-linking-obamacare-katrina-and-iraq'
p69
aS'http://www.foxnews.com/transcript/2014/04/16/putin-making-president-obama-look-weak'
p70
aS'http://www.foxnews.com/transcript/2015/12/01/left-blames-right-rhetoric-for-planned-parenthood-attack-fiorina-rips-media/'
p71
aS'http://www.foxnews.com/transcript/2014/06/16/exclusive-video-drug-cartels-crossing-southern-border'
p72
aS'http://www.foxnews.com/transcript/2015/01/15/what-to-expect-in-obama-state-union-address/'
p73
aS'http://www.foxnews.com/transcript/2015/06/19/ben-carson-calls-for-unity-as-charleston-community-recovers-from-tragedy/'
p74
aS'http://www.foxnews.com/transcript/2015/12/03/counter-terror-expert-threat-terror-is-here-and-it-is-real/'
p75
aS'http://www.foxnews.com/transcript/2015/01/20/rep-jason-chaffetz-hopes-mitt-romney-runs-again/'
p76
aS'http://www.foxnews.com/transcript/2015/09/23/kelly-file-exclusive-kim-davis-speaks-out-about-time-in-jail-couple-denied/'
p77
aS'http://www.foxnews.com/transcript/2016/02/10/ted-cruz-on-trump-win-nh-good-state-for-liberal-republicans-george-w-to-join/'
p78
aS'http://www.foxnews.com/transcript/2015/12/02/exclusive-video-shootout-between-police-suspects-in-san-bernardino-shooting/'
p79
aS'http://www.foxnews.com/transcript/2016/05/12/rnc-chair-trump-and-ryan-now-more-impressed-with-each-other/'
p80
aS'http://www.foxnews.com/transcript/2016/01/27/rubio-will-unite-gop-and-create-new-conservatives/'
p81
aS'http://www.foxnews.com/transcript/2015/10/06/father-oregon-shooting-survivor-against-obama-visit-carsons-on-gun-comment/'
p82
aS'http://www.foxnews.com/transcript/2015/11/12/dershowitz-students-dont-want-diversity-ideas-trump-son-defends-deportation/'
p83
aS'http://www.foxnews.com/transcript/2013/11/05/rep-gowdy-paper-applications-obamacare-are-facade'
p84
aS'http://www.foxnews.com/transcript/2015/06/05/exclusive-duggar-sisters-want-to-set-record-straight/'
p85
aS'http://www.foxnews.com/transcript/2014/10/08/megyn-kelly-addresses-fortune-most-powerful-women-summit-2014/'
p86
aS'http://www.foxnews.com/transcript/2016/04/12/one-on-one-with-heidi-cruz-on-kelly-file/'
p87
aS'http://www.foxnews.com/transcript/2015/07/15/new-fallout-over-planned-parenthood-abortion-video-cruz-calls-for-defunding/'
p88
aS'http://www.foxnews.com/transcript/2015/03/05/lead-attorney-in-obamacare-subsidies-challenge-our-argument-is-very-compelling/'
p89
aS'http://www.foxnews.com/transcript/2014/11/26/joe-hicks-dr-king-has-got-to-be-spinning-in-his-grave/'
p90
aS'http://www.foxnews.com/transcript/2013/11/07/cancer-survivor-fires-back-obamacare-after-losing-health-plan'
p91
aS'http://www.foxnews.com/transcript/2014/05/22/exclusive-james-okeefe-exposes-hollywood-environmentalists'
p92
aS'http://www.foxnews.com/transcript/2016/06/17/former-extremist-gives-his-theory-on-orlando-shooting-motive/'
p93
aS'http://www.foxnews.com/transcript/2015/01/13/state-dept-there-are-other-forms-extremism-that-are-important/'
p94
aS'http://www.foxnews.com/transcript/2016/01/08/police-officer-in-good-spirits-after-nearly-assassinated-rep-king-police-should/'
p95
aS'http://www.foxnews.com/transcript/2016/06/23/democrats-response-to-orlando-slammed-as-publicity-stunt-media-role-in-gun/'
p96
aS'http://www.foxnews.com/transcript/2015/07/20/why-were-tennessee-marines-left-defenseless-meghan-mccain-defends-father/'
p97
aS'http://www.foxnews.com/transcript/2016/06/10/media-excitement-over-warren-endorsement-justified-mitt-romney-confirms-will/'
p98
aS'http://www.foxnews.com/transcript/2014/10/24/rep-king-discusses-terror-fears-after-nyc-ax-attack/'
p99
aS'http://www.foxnews.com/transcript/2013/12/04/obamacare-bombshell-site-has-no-system-exchange-payment'
p100
aS'http://www.foxnews.com/transcript/2015/10/08/carson-campaign-responds-to-hateful-gq-article-keane-warns-putin-starting-proxy/'
p101
aS'http://www.foxnews.com/transcript/2016/03/29/ex-breitbart-editor-on-trump-campaign-manager-facing-charges-gingrich-sounds/'
p102
aS'http://www.foxnews.com/transcript/2016/05/06/should-down-ballot-republicans-show-support-for-trump-kurtz-obama-aide-bragged/'
p103
aS'http://www.foxnews.com/transcript/2016/06/28/how-do-us-intelligence-agencies-respond-to-wave-terror-abroad/'
p104
aS'http://www.foxnews.com/transcript/2013/12/10/how-will-obamacare-impact-prescription-drug-coverage'
p105
aS'http://www.foxnews.com/transcript/2015/01/26/rick-santorum-reacts-to-new-developments-for-2016-gop-field/'
p106
aS'http://www.foxnews.com/transcript/2014/08/06/oklahoma-ag-challenges-irs-plan-investigate-churches'
p107
aS'http://www.foxnews.com/transcript/2014/11/03/will-democrats-war-on-women-accusations-against-republicans-backfire/'
p108
aS'http://www.foxnews.com/transcript/2016/03/21/cruz-on-aipac-speech-israel-policy-obama-cuba-trip-priebus-says-contested/'
p109
aS'http://www.foxnews.com/transcript/2016/07/01/victims-terrorism-speak-out-about-attacks-in-america/'
p110
aS'http://www.foxnews.com/transcript/2015/07/17/kelly-file-special-lone-wolf/'
p111
aS'http://www.foxnews.com/transcript/2015/07/08/hillary-clinton-breaks-silence-in-first-national-press-interview-since/'
p112
aS'http://www.foxnews.com/transcript/2014/07/02/exclusive-bill-ayers-life-after-weather-underground'
p113
aS'http://www.foxnews.com/transcript/2016/04/07/newt-gingrich-trump-is-at-real-turning-point-in-his-campaign-ben-carson/'
p114
aS'http://www.foxnews.com/transcript/2015/08/13/sen-marco-rubio-addresses-black-lives-matter-movement/'
p115
aS'http://www.foxnews.com/transcript/2016/07/26/sanders-supporter-email-dump-has-exposed-democratic-party/'
p116
aS'http://www.foxnews.com/transcript/2015/03/26/closer-look-at-ted-cruz-campaign-rollout/'
p117
aS'http://www.foxnews.com/transcript/2016/01/06/mideast-volatility-raises-questions-about-us-leadership-ala-judge-orders-halt/'
p118
aS'http://www.foxnews.com/transcript/2016/04/14/trump-ny-gala-remarks-receive-mixed-reaction-from-voters/'
p119
aS'http://www.foxnews.com/transcript/2014/11/24/sen-jeff-sessions-calls-obama-executive-action-power-grab/'
p120
aS'http://www.foxnews.com/transcript/2015/10/01/another-mass-shooting-in-gun-free-zone-krauthammer-slams-white-house-on-syria/'
p121
aS'http://www.foxnews.com/transcript/2014/07/07/inside-look-dinesh-dsouzas-film-america'
p122
aS'http://www.foxnews.com/transcript/2014/12/19/sen-rubio-cuba-deal-will-imperil-national-security-us/'
p123
aS'http://www.foxnews.com/transcript/2014/11/12/gowdy-slams-arrogance-obamacare-architect-for-calling-americans-stupid/'
p124
aS'http://www.foxnews.com/transcript/2014/09/25/war-on-terror-then-vs-now-is-obama-becoming-bush/'
p125
aS'http://www.foxnews.com/transcript/2015/01/28/rep-hunter-slams-us-hostage-policies-as-america-in-retreat/'
p126
aS'http://www.foxnews.com/transcript/2014/01/23/mitt-director-opens-filming-romneys-campaign'
p127
aS'http://www.foxnews.com/transcript/2016/02/22/kasich-addresses-controversy-over-women-voters-comment-ryan-responds-to-critics/'
p128
aS'http://www.foxnews.com/transcript/2014/05/26/how-veterans-affairs-controversy-has-evolved'
p129
aS'http://www.foxnews.com/transcript/2016/07/12/hume-racial-tensions-have-grown-worse-under-obama-admin/'
p130
aS'http://www.foxnews.com/transcript/2015/01/14/sen-ayotte-introduces-plan-to-restrict-gitmo-releases/'
p131
aS'http://www.foxnews.com/transcript/2014/11/20/exclusive-ted-cruz-calls-obama-immigration-plan-moment-testing/'
p132
aS'http://www.foxnews.com/transcript/2015/01/09/exclusive-sen-mitch-mcconnell-lays-out-new-senate-agenda/'
p133
aS'http://www.foxnews.com/transcript/2015/06/09/media-pounce-on-video-cop-drawing-gun-on-teens-huckabee-speaks-out-on-duggar/'
p134
aS'http://www.foxnews.com/transcript/2016/05/09/clinton-backers-launch-new-attack-against-trump-can-trump-score-points-with/'
p135
aS'http://www.foxnews.com/transcript/2014/03/11/exclusive-dinesh-dsouza-back-new-film-america'
p136
aS'http://www.foxnews.com/transcript/2014/06/18/cleta-mitchell-appaled-double-standard-over-lost-irs-e-mails'
p137
aS'http://www.foxnews.com/transcript/2014/10/27/are-lone-wolf-attacks-new-face-terrorism/'
p138
aS'http://www.foxnews.com/transcript/2015/06/11/how-obama-plans-to-diversify-wealthy-neighborhoods-mitt-romney-talks-2016-obama/'
p139
aS'http://www.foxnews.com/transcript/2015/01/06/inside-small-but-growing-movement-to-topple-john-boehner/'
p140
aS'http://www.foxnews.com/transcript/2014/08/22/exclusive-mitt-romney-and-paul-ryan-obamas-handling-isis-threat'
p141
aS'http://www.foxnews.com/transcript/2015/09/22/cruz-carson-and-jindal-speak-out-about-religious-controversy-on-kelly-file/'
p142
aS'http://www.foxnews.com/transcript/2015/12/21/new-questions-over-obama-isis-messaging-rand-paul-takes-aim-at-gop-competitors/'
p143
aS'http://www.foxnews.com/transcript/2014/05/28/why-was-nothing-done-gao-aware-va-problems'
p144
aS'http://www.foxnews.com/transcript/2014/05/13/geithner-claims-obama-adviser-suggested-he-mislead-public'
p145
aS'http://www.foxnews.com/transcript/2015/05/07/exclusive-ben-carson-sets-his-sights-on-white-house/'
p146
aS'http://www.foxnews.com/transcript/2015/03/04/sen-rubio-fears-nuclear-middle-east-if-us-strikes-deal-with-iran/'
p147
aS'http://www.foxnews.com/transcript/2013/11/20/rep-chaffetz-fabricating-unemployment-data-not-acceptable'
p148
aS'http://www.foxnews.com/transcript/2016/05/10/hume-west-virginia-reveals-clinton-weakness-as-candidate-cain-cruz-rejecting/'
p149
aS'http://www.foxnews.com/transcript/2014/03/19/rep-king-malaysias-terrible-lack-cooperation-jet-probe'
p150
aS'http://www.foxnews.com/transcript/2014/09/17/obama-facing-confidence-crisis-isis-fight/'
p151
aS'http://www.foxnews.com/transcript/2015/05/26/kelly-file-special-defying-sword/'
p152
aS'http://www.foxnews.com/transcript/2013/11/26/are-democrats-fed-obamacare'
p153
aS'http://www.foxnews.com/transcript/2014/02/25/mass-judge-sentences-justina-pelletier-foster-care'
p154
aS'http://www.foxnews.com/transcript/2013/12/02/kelly-file-robbing-our-youth'
p155
aS'http://www.foxnews.com/transcript/2014/03/06/exclusive-maureen-faulkner-failed-doj-nomination'
p156
aS'http://www.foxnews.com/transcript/2014/10/31/woman-launches-petition-to-keep-ebola-nurse-quarantined/'
p157
aS'http://www.foxnews.com/transcript/2016/06/06/david-french-explains-why-is-not-running-for-president-glenn-beck-on-state-2016/'
p158
aS'http://www.foxnews.com/transcript/2016/03/23/obama-criticized-for-response-to-brussels-attacks-cain-explains-trump-high-fear/'
p159
aS'http://www.foxnews.com/transcript/2014/04/07/charles-krauthammer-secretary-kerrys-diplomatic-futility'
p160
aS'http://www.foxnews.com/transcript/2016/01/25/rove-reacts-to-democratic-town-hall-what-happens-if-clinton-cant-run-for/'
p161
aS'http://www.foxnews.com/transcript/2015/02/18/exclusive-gov-scott-walker-fires-back-at-pro-union-mob/'
p162
aS'http://www.foxnews.com/transcript/2015/09/16/kelly-file-special-ashley-smith-story/'
p163
aS'http://www.foxnews.com/transcript/2015/11/30/planned-parenthood-shooting-blame-game-heats-up-carson-talks-gaining-first-hand/'
p164
aS'http://www.foxnews.com/transcript/2015/05/22/does-evidence-support-indictment-baltimore-officers-in-freddie-gray-case/'
p165
aS'http://www.foxnews.com/transcript/2015/09/29/carson-responds-to-cair-calls-to-drop-out-2016-race-chaffetz-on-questioning/'
p166
aS'http://www.foxnews.com/transcript/2015/08/12/ben-carson-tackles-race-issues-in-harlem-as-poll-numbers-surge-in-iowa/'
p167
aS'http://www.foxnews.com/transcript/2014/04/03/time-allow-soldiers-carry-arms-stateside-posts'
p168
aS'http://www.foxnews.com/transcript/2014/09/16/exclusive-mariam-ibraheem-opens-up-about-harrowing-ordeal-on-kelly-file/'
p169
aS'http://www.foxnews.com/transcript/2014/04/01/exclusive-gov-christie-2016-presidential-aspirations'
p170
aS'http://www.foxnews.com/transcript/2015/03/23/republicans-demand-hillary-clinton-turn-over-her-server/'
p171
aS'http://www.foxnews.com/transcript/2016/06/20/gen-flynn-mateen-11-transcript-another-blunder-for-wh-exclusive-michelle-fields/'
p172
aS'http://www.foxnews.com/transcript/2016/08/01/veteran-panel-sounds-off-on-trump-khan-controversy-chandra-levy-parents-speak/'
p173
aS'http://www.foxnews.com/transcript/2014/12/29/exclusive-nypd-staffer-who-turned-back-on-mayor-speaks-out/'
p174
aS'http://www.foxnews.com/transcript/2014/05/07/rep-hunter-demands-release-marine-jailed-mexico'
p175
aS'http://www.foxnews.com/transcript/2014/03/05/rep-ryan-obamas-budget-has-gone-farther-left'
p176
aS'http://www.foxnews.com/transcript/2014/06/19/dick-and-liz-cheney-pan-obamas-lack-leadership-amid-growing-crisis-iraq'
p177
aS'http://www.foxnews.com/transcript/2014/12/24/rudy-giuliani-mayor-de-blasio-owes-apology-to-nypd/'
p178
aS'http://www.foxnews.com/transcript/2015/06/15/hillary-clinton-re-launches-presidential-campaign-amid-scandals/'
p179
aS'http://www.foxnews.com/transcript/2016/05/26/kelly-file-exclusive-part-2-trump-interview/'
p180
aS'http://www.foxnews.com/transcript/2016/06/01/debate-grows-over-trump-university-after-documents-released/'
p181
aS'http://www.foxnews.com/transcript/2016/05/27/megyn-kelly-presents/'
p182
aS'http://www.foxnews.com/transcript/2014/04/29/exclusive-dinesh-dsouza-moral-underpinning-obama'
p183
aS'http://www.foxnews.com/transcript/2014/06/23/rep-brady-offers-insight-irs-commissioners-testimony'
p184
aS'http://www.foxnews.com/transcript/2016/05/03/examining-challenges-facing-trump-in-general-election-what-next-for-never-trump/'
p185
aS'http://www.foxnews.com/transcript/2014/10/06/is-obama-doing-enough-to-prevent-ebola-outbreak-in-america/'
p186
aS'http://www.foxnews.com/transcript/2015/08/20/huckabee-weighs-in-on-anchor-baby-debate-santorum-rips-gop-candidates-on/'
p187
aS'http://www.foxnews.com/transcript/2014/04/08/exclusive-boehner-says-house-will-hold-lerner-contempt'
p188
aS'http://www.foxnews.com/transcript/2015/04/02/religious-freedom-law-raises-questions-about-tolerance/'
p189
aS'http://www.foxnews.com/transcript/2014/01/27/mike-huckabee-reacts-criticism-comments-women'
p190
aS'http://www.foxnews.com/transcript/2014/05/21/exclusive-dinesh-dsouza-why-he-pleaded-guilty-campaign-finance-violation'
p191
aS'http://www.foxnews.com/transcript/2015/09/24/latest-polls-suggest-big-changes-in-gop-race-krauthammer-calls-trump-criticism/'
p192
aS'http://www.foxnews.com/transcript/2014/01/30/exclusive-mitch-mcconnell-slams-white-house-intimidating-critics'
p193
aS'http://www.foxnews.com/transcript/2015/02/24/exclusive-florist-who-refuses-to-do-gay-wedding-speaks-out/'
p194
aS'http://www.foxnews.com/transcript/2015/05/04/exclusive-baltimore-cop-close-to-freddie-gray-arresting-officers-speaks-out/'
p195
aS'http://www.foxnews.com/transcript/2015/01/08/exclusive-mcconnell-says-terror-will-be-long-term-problem/'
p196
aS'http://www.foxnews.com/transcript/2015/07/06/kelly-file-special-2016-and-america-challenge/'
p197
aS'http://www.foxnews.com/transcript/2014/09/12/exclusive-ward-churchill-vs-dinesh-dsouza/'
p198
aS'http://www.foxnews.com/transcript/2016/01/04/real-life-benghazi-heroes-open-up-about-13-hours-movie-oregon-occupier-speaks/'
p199
aS'http://www.foxnews.com/transcript/2013/11/25/george-will-cynical-lawlessness-obamacare-delay'
p200
aS'http://www.foxnews.com/transcript/2016/02/05/trump-faces-blizzard-criticism-by-taking-snow-day/'
p201
aS'http://www.foxnews.com/transcript/2015/12/14/should-civil-liberties-usurp-terror-investigations-what-to-expect-from-final/'
p202
aS'http://www.foxnews.com/transcript/2015/04/07/rick-perry-warns-global-threats-are-growing/'
p203
aS'http://www.foxnews.com/transcript/2015/09/21/how-media-fueled-walker-rise-and-fall-wh-papal-welcome-list-offends/'
p204
aS'http://www.foxnews.com/transcript/2014/01/21/anthony-weiner-megyn-kelly-debate-political-scandals'
p205
aS'http://www.foxnews.com/transcript/2013/11/27/joe-lieberman-says-put-brakes-iran-deal'
p206
aS'http://www.foxnews.com/transcript/2016/04/27/exclusive-carly-fiorina-speaks-out-on-joining-cruz-ticket/'
p207
aS'http://www.foxnews.com/transcript/2016/01/22/benghazi-victim-sister-shocked-by-bill-clinton-comments-national-review/'
p208
aS'http://www.foxnews.com/transcript/2014/09/18/exclusive-rep-chaffetz-on-risk-terrorists-crossing-us-southern-border/'
p209
aS'http://www.foxnews.com/transcript/2016/03/17/report-rnc-considering-convention-rule-changes/'
p210
aS'http://www.foxnews.com/transcript/2015/08/04/sen-ted-cruz-talks-upcoming-republican-primary-debate-on-kelly-file/'
p211
aS'http://www.foxnews.com/transcript/2014/03/12/exclusive-david-jolly-winning-fla-special-election'
p212
aS'http://www.foxnews.com/transcript/2016/04/22/prince-first-guitarist-describes-jamming-with-legend-student-accused-rape-files/'
p213
aS'http://www.foxnews.com/transcript/2015/04/27/fraternity-brothers-accused-disrespecting-veterans/'
p214
aS'http://www.foxnews.com/transcript/2015/12/07/did-california-killer-couple-have-outside-help/'
p215
aS'http://www.foxnews.com/transcript/2015/02/27/lindsey-graham-on-how-plans-to-stop-dangerous-iran-deal/'
p216
aS'http://www.foxnews.com/transcript/2014/10/16/calls-mount-for-cdc-director-to-resign-over-ebola-missteps/'
p217
aS'http://www.foxnews.com/transcript/2014/10/10/why-is-left-attacking-leon-panetta-patriotism/'
p218
aS'http://www.foxnews.com/transcript/2013/10/23/congressmans-campaign-uses-burning-cross-anti-tea-party-ad'
p219
aS'http://www.foxnews.com/transcript/2015/12/10/rubio-bush-blast-trump-proposed-muslim-ban-on-kelly-file/'
p220
aS'http://www.foxnews.com/transcript/2014/01/24/exclusive-greg-abbott-responds-attacks-wendy-davis-her-supporters'
p221
aS'http://www.foxnews.com/transcript/2014/09/19/generals-stand-up-against-president-obama-isis-strategy/'
p222
aS'http://www.foxnews.com/transcript/2015/12/29/rep-king-on-new-year-eve-terror-plot-in-belgium-santorum-slams-ted-cruz-on/'
p223
aS'http://www.foxnews.com/transcript/2016/05/20/trump-v-clinton-who-is-more-likely-to-defeat-isis-congressman-lashes-out-at-tsa/'
p224
aS'http://www.foxnews.com/transcript/2013/10/14/judge-judy-sheindlin-taking-personal-responsibility'
p225
aS'http://www.foxnews.com/transcript/2014/02/24/heroin-found-elementary-schools-faculty-bathroom'
p226
aS'http://www.foxnews.com/transcript/2014/02/19/kathleen-willey-hillary-clinton-war-women'
p227
aS'http://www.foxnews.com/transcript/2014/04/17/bloomberg-pledges-50-million-anti-gun-awareness-plan'
p228
aS'http://www.foxnews.com/transcript/2014/06/13/rev-maupin-gives-rare-inside-account-border-crisis'
p229
aS'http://www.foxnews.com/transcript/2016/02/08/rubio-christie-kasich-make-final-new-hampshire-push-on-kelly-file/'
p230
aS'http://www.foxnews.com/transcript/2016/06/23/new-questions-for-ag-lynch-about-orlando-attack-11-call-trump-clinton-launch/'
p231
aS'http://www.foxnews.com/transcript/2014/06/27/sen-mike-lee-supreme-courts-blow-obama-admin'
p232
aS'http://www.foxnews.com/transcript/2014/10/22/georgia-democrats-campaigning-on-ferguson-tragedy/'
p233
aS'http://www.foxnews.com/transcript/2015/07/22/kate-steinle-brother-blasts-executive-order-on-immigration/'
p234
aS'http://www.foxnews.com/transcript/2016/05/23/father-acquitted-baltimore-police-officer-speaks-out-carson-talks-trump-attacks/'
p235
aS'http://www.foxnews.com/transcript/2014/12/16/cia-interrogation-architect-reacts-to-senate-report/'
p236
aS'http://www.foxnews.com/transcript/2015/02/05/exclusive-rep-devin-nunes-on-how-us-can-defeat-isis/'
p237
aS'http://www.foxnews.com/transcript/2016/04/08/any-truth-to-rumors-trump-campaign-is-in-disarray/'
p238
aS'http://www.foxnews.com/transcript/2016/02/19/jeb-obama-continues-to-divide-us-by-avoiding-scalia-funeral-kasich-spirit/'
p239
aS'http://www.foxnews.com/transcript/2013/10/17/guy-benson-republican-party-fractured-after-loss'
p240
aS'http://www.foxnews.com/transcript/2013/12/17/budget-deal-cuts-pension-payments-military-retirees'
p241
aS'http://www.foxnews.com/transcript/2013/10/11/americans-vow-send-message-washington'
p242
aS'http://www.foxnews.com/transcript/2015/12/15/candidates-square-off-in-final-gop-debate-2015-influential-conservatives-back/'
p243
aS'http://www.foxnews.com/transcript/2016/04/01/kurtz-trump-going-through-worst-stretch-his-campaign/'
p244
aS'http://www.foxnews.com/transcript/2015/08/11/fallout-from-top-secret-e-mails-found-on-clinton-private-server/'
p245
aS'http://www.foxnews.com/transcript/2014/11/26/rudy-giuliani-on-darren-wilson-breaking-his-silence/'
p246
aS'http://www.foxnews.com/transcript/2016/04/25/could-cruz-kasich-alliance-backfire/'
p247
aS'http://www.foxnews.com/transcript/2016/02/02/rubio-this-is-very-unusual-political-year-huckabee-talks-next-steps-after/'
p248
aS'http://www.foxnews.com/transcript/2016/06/30/critics-call-for-attorney-general-lynch-recusal-from-clinton-investigation/'
p249
aS'http://www.foxnews.com/transcript/2016/03/07/how-kasich-feels-heading-into-michigan-inside-nancy-reagan-undying-devotion-to/'
p250
aS'http://www.foxnews.com/transcript/2013/11/08/cancer-patient-forced-make-life-or-death-decision'
p251
aS'http://www.foxnews.com/transcript/2014/08/07/why-wont-us-condemn-hamas'
p252
aS'http://www.foxnews.com/transcript/2014/03/20/gen-mcinerney-us-hasnt-come-clean-flight-370-data'
p253
aS'http://www.foxnews.com/transcript/2014/04/14/irs-seizing-tax-refunds-children-over-parents-decades-old-debt'
p254
aS'http://www.foxnews.com/transcript/2013/11/19/justice-dept-filing-states-most-will-lose-employer-coverage'
p255
aS'http://www.foxnews.com/transcript/2015/03/13/st-louis-police-union-official-and-darren-wilson-friend-speaks-out-amid-police/'
p256
aS'http://www.foxnews.com/transcript/2015/02/04/will-jordan-get-help-it-needs-from-white-house-to-fight-isis/'
p257
aS'http://www.foxnews.com/transcript/2013/12/05/girl-barred-selling-mistletoe-told-beg-speaks-out'
p258
aS'http://www.foxnews.com/transcript/2016/07/06/how-clinton-campaign-responds-to-scandal-rev-jackson-alton-sterling-was-no/'
p259
aS'http://www.foxnews.com/transcript/2015/11/06/carly-fiorina-reaction-after-revisiting-view-ben-carson-opens-up-about-his/'
p260
aS'http://www.foxnews.com/transcript/2014/10/02/is-baghdad-at-risk-falling-to-isis/'
p261
aS'http://www.foxnews.com/transcript/2014/03/07/issa-i-broke-no-rules-adjourning-irs-hearing'
p262
aS'http://www.foxnews.com/transcript/2015/03/25/former-cia-officer-on-how-to-get-truth-from-anyone/'
p263
aS'http://www.foxnews.com/transcript/2014/04/21/obama-signs-bill-banning-iran-hostage-taker-un-job'
p264
aS'http://www.foxnews.com/transcript/2014/02/21/father-speaks-out-losing-custody-daughter-over-medical-issues'
p265
aS'http://www.foxnews.com/transcript/2014/04/25/doctor-speaks-out-after-veterans-die-waiting-care'
p266
aS'http://www.foxnews.com/transcript/2013/11/12/political-tide-hollywood-turning'
p267
aS'http://www.foxnews.com/transcript/2016/07/18/megyn-kelly-challenges-former-black-panther-leader/'
p268
aS'http://www.foxnews.com/transcript/2015/11/20/kerry-claims-al-qaeda-neutralized-before-mali-attack-role-women-in-isis/'
p269
aS'http://www.foxnews.com/transcript/2014/08/13/exclusive-firsthand-reporter-account-humanitarian-crisis-iraq'
p270
aS'http://www.foxnews.com/transcript/2014/04/09/white-house-faces-storm-criticism-over-gender-pay-gap'
p271
aS'http://www.foxnews.com/transcript/2014/08/21/gen-keane-no-reason-white-house-disclose-failed-rescue-american-hostages'
p272
aS'http://www.foxnews.com/transcript/2015/12/28/rubio-blasts-white-house-narrative-on-isis-bush-says-trump-would-be-disaster/'
p273
aS'http://www.foxnews.com/transcript/2014/04/11/rep-gohmert-blasts-holder-calling-out-his-tough-questioning'
p274
aS'http://www.foxnews.com/transcript/2014/03/25/rep-king-malaysian-pm-trying-deflect-criticism'
p275
aS'http://www.foxnews.com/transcript/2015/02/23/dr-ben-carson-questions-obama-position-on-radical-islam/'
p276
aS'http://www.foxnews.com/transcript/2014/05/06/exclusive-doctor-blows-whistle-phoenix-va-neglect'
p277
aS'http://www.foxnews.com/transcript/2014/03/03/it-too-late-warn-russia-stay-out-ukraine'
p278
aS'http://www.foxnews.com/transcript/2016/05/18/media-reaction-to-megyn-kelly-interview-with-donald-trump/'
p279
aS'http://www.foxnews.com/transcript/2016/07/08/rally-organizer-shows-regret-over-rhetoric-used-in-dallas/'
p280
aS'http://www.foxnews.com/transcript/2014/11/13/sen-sessions-obama-has-no-authority-to-suspend-deportation-illegal-immigrants/'
p281
aS'http://www.foxnews.com/transcript/2013/10/28/exclusive-obamacare-architect-failures-and-successes-so-far'
p282
aS'http://www.foxnews.com/transcript/2013/12/06/inside-nelson-mandelas-astonishing-capacity-forgive'
p283
aS'http://www.foxnews.com/transcript/2015/03/31/new-book-reveals-weather-underground-secrets/'
p284
aS'http://www.foxnews.com/transcript/2015/07/23/donald-trump-border-trip-ignites-immigration-debate/'
p285
aS'http://www.foxnews.com/transcript/2016/05/24/veterans-react-to-firestorm-over-donald-trump-fundraiser-gingrich-defends/'
p286
aS'http://www.foxnews.com/transcript/2014/07/31/rep-jordan-calls-serious-probe-new-lerner-e-mails'
p287
aS'http://www.foxnews.com/transcript/2014/01/29/paul-rieckhoff-discusses-future-veteran-benefits'
p288
aS'http://www.foxnews.com/transcript/2015/07/16/rep-king-gov-walker-call-for-more-action-in-washington-to-combat-radical/'
p289
aS'http://www.foxnews.com/transcript/2016/03/10/trump-not-ruling-out-little-marco-as-vp-pick-trump-campaign-manager-accused/'
p290
aS'http://www.foxnews.com/transcript/2015/12/30/huckabee-calls-spying-on-congress-members-impeachable-offense/'
p291
aS'http://www.foxnews.com/transcript/2014/08/05/rep-tom-marino-speaks-out-about-pelosi-spat-house-floor'
p292
aS'http://www.foxnews.com/transcript/2014/09/22/rep-peter-king-calls-on-americans-to-support-president-obama-amid-syria/'
p293
aS'http://www.foxnews.com/transcript/2015/08/14/trump-goes-on-offensive-in-nh-walker-fights-dip-in-polls/'
p294
aS'http://www.foxnews.com/transcript/2016/01/11/rep-mccaul-addresses-latest-threats-to-us-gov-abbott-calls-for-amending/'
p295
aS'http://www.foxnews.com/transcript/2015/06/17/is-left-waging-war-against-college-men/'
p296
aS'http://www.foxnews.com/transcript/2015/01/29/exclusive-huckabee-responds-to-report-called-fox-news-women-trashy/'
p297
aS'http://www.foxnews.com/transcript/2014/01/17/justice-department-change-rules-terror-investigations'
p298
aS'http://www.foxnews.com/transcript/2015/08/24/dr-ben-carson-blasts-black-lives-matter-movement-on-kelly-file/'
p299
aS'http://www.foxnews.com/transcript/2015/09/14/gop-race-heats-up-ahead-cnn-debate-chris-christie-scott-walker-and-mike/'
p300
aS'http://www.foxnews.com/transcript/2014/03/21/exclusive-chambliss-says-fbi-laser-focused-simulator'
p301
aS'http://www.foxnews.com/transcript/2014/05/16/exclusive-tv-host-amy-kushnir-speaks-out-after-storming-set-during-michael-sam'
p302
aS'http://www.foxnews.com/transcript/2015/12/10/glenn-beck-works-to-bring-iraqi-christians-out-mideast-cruz-obama-believes/'
p303
aS'http://www.foxnews.com/transcript/2015/09/02/black-americans-fight-back-against-black-lives-matter/'
p304
aS'http://www.foxnews.com/transcript/2013/10/15/media-creating-monsters-out-veterans-protesting-washington'
p305
aS'http://www.foxnews.com/transcript/2016/06/09/krauthammer-sanders-exit-has-been-carefully-choreographed/'
p306
aS'http://www.foxnews.com/transcript/2014/02/17/what-president-obama-doing-bush-didnt'
p307
aS'http://www.foxnews.com/transcript/2015/07/09/where-is-white-house-outcry-after-kate-steinle-murder-plus-huckabee-says-would/'
p308
aS'http://www.foxnews.com/transcript/2015/10/07/servers-seized-new-players-uncovered-in-clinton-scandal/'
p309
aS'http://www.foxnews.com/transcript/2014/09/24/bill-oreilly-talks-new-book-killing-patton/'
p310
aS'http://www.foxnews.com/transcript/2016/01/21/leading-conservative-voices-unite-to-stop-donald-trump/'
p311
aS'http://www.foxnews.com/transcript/2016/07/20/do-allegations-plagiarism-stain-melania-trump-speech/'
p312
aS'http://www.foxnews.com/transcript/2014/06/20/poll-shows-confidence-obama-waning-amid-iraq-chaos'
p313
aS'http://www.foxnews.com/transcript/2014/10/01/widow-college-react-to-convicted-cop-killer-giving-commencement-speech/'
p314
aS'http://www.foxnews.com/transcript/2014/05/02/exclusive-dr-dobson-lashes-out-obama-open-letter'
p315
aS'http://www.foxnews.com/transcript/2015/07/21/second-planned-parenthood-fetal-harvesting-video-emerges-white-house-lowers/'
p316
aS'http://www.foxnews.com/transcript/2014/07/11/rep-king-discusses-threat-us-amid-mideast-terror'
p317
aS'http://www.foxnews.com/transcript/2014/03/17/evidence-shows-malaysian-flight-abruptly-ascended-descended'
p318
aS'http://www.foxnews.com/transcript/2014/06/17/al-qaeda-offshoot-likely-control-surface-air-missiles'
p319
aS'http://www.foxnews.com/transcript/2015/05/06/exclusive-mike-huckabee-on-launching-presidential-campaign/'
p320
aS'http://www.foxnews.com/transcript/2014/12/01/kelly-file-special-who-is-teaching-our-kids/'
p321
aS'http://www.foxnews.com/transcript/2016/02/29/huckabee-rep-king-talk-trump-kkk-controversy-carson-vows-not-dropping-out-race/'
p322
aS'http://www.foxnews.com/transcript/2015/02/17/rep-peter-king-provides-insight-into-us-intel-on-denmark-attack/'
p323
aS'http://www.foxnews.com/transcript/2013/10/16/have-tea-party-republicans-won-battle-lost-war'
p324
aS'http://www.foxnews.com/transcript/2016/04/20/wasserman-schultz-talks-sanders-vs-clinton-carson-should-not-kick-jackson-off/'
p325
aS'http://www.foxnews.com/transcript/2014/05/23/exclusive-debra-burlingame-calls-leave-911-museum'
p326
aS'http://www.foxnews.com/transcript/2016/06/02/trump-renews-attack-on-federal-judge-over-ethnicity-georgia-aclu-director/'
p327
aS'http://www.foxnews.com/transcript/2016/03/04/former-romney-campaign-strategist-reacts-to-trump-attacks/'
p328
aS'http://www.foxnews.com/transcript/2013/11/14/ezekiel-emanuel-obamacare-enrollments-are-disappointing'
p329
aS'http://www.foxnews.com/transcript/2014/10/15/cdc-director-defends-ebola-response-our-information-is-clear-and-correct/'
p330
aS'http://www.foxnews.com/transcript/2014/08/15/prosecution-shaneen-allen-moves-ahead'
p331
aS'http://www.foxnews.com/transcript/2015/11/24/how-us-should-respond-to-heightened-state-alert-cruz-reacts-to-poll-surge/'
p332
aS'http://www.foxnews.com/transcript/2014/12/04/exclusive-st-louis-county-police-chief-speaks-out/'
p333
aS'http://www.foxnews.com/transcript/2015/02/09/reporter-who-broke-brian-williams-story-speaks-out/'
p334
aS'http://www.foxnews.com/transcript/2016/07/13/dl-hughley-speaks-out-about-recent-police-shootings/'
p335
aS'http://www.foxnews.com/transcript/2014/11/10/texas-governor-elect-greg-abbott-details-illegal-immigration-crisis/'
p336
aS'http://www.foxnews.com/transcript/2015/03/11/exclusive-sen-tom-cotton-responds-to-backlash-over-gop-letter-to-iran/'
p337
aS'http://www.foxnews.com/transcript/2016/06/24/why-brexit-is-wonderful-news-for-uk-and-america-europe-now-more-vulnerable-to/'
p338
aS'http://www.foxnews.com/transcript/2016/05/04/paul-manafort-trump-lauched-first-modern-campaign/'
p339
aS'http://www.foxnews.com/transcript/2016/07/29/huckabee-responds-to-muslim-father-featured-at-dnc/'
p340
aS'http://www.foxnews.com/transcript/2014/09/26/marie-harf-provides-insight-into-iraq-terror-warning/'
p341
aS'http://www.foxnews.com/transcript/2015/04/29/baltimore-authorities-determined-not-to-repeat-what-happened-in-ferguson/'
p342
aS'http://www.foxnews.com/transcript/2015/11/04/sources-high-probability-bomb-brought-down-russian-plane-tarantino-not-backing/'
p343
aS'http://www.foxnews.com/transcript/2014/03/27/years-produce-lois-lerners-irs-emails'
p344
aS'http://www.foxnews.com/transcript/2016/01/15/ted-cruz-goes-toe-to-toe-with-donald-trump-on-citizenship/'
p345
aS'http://www.foxnews.com/transcript/2014/06/26/rep-issa-calls-special-prosescutor-investigate-lerner'
p346
aS'http://www.foxnews.com/transcript/2014/10/30/ebola-survivor-says-quarantine-has-negative-consequences/'
p347
aS'http://www.foxnews.com/transcript/2014/06/24/state-department-defends-us-stance-iraq'
p348
aS'http://www.foxnews.com/transcript/2015/01/27/state-dept-jen-psaki-discusses-new-twist-in-us-israel-relationship/'
p349
aS'http://www.foxnews.com/transcript/2015/12/18/kelly-file-special-2016-in-focus/'
p350
aS'http://www.foxnews.com/transcript/2014/10/21/jindal-guarantees-obama-will-blame-republicans-for-ebola-missteps/'
p351
aS'http://www.foxnews.com/transcript/2016/02/26/trump-shakes-up-gop-race-with-surprise-christie-endorsement-update-on-bakers/'
p352
aS'http://www.foxnews.com/transcript/2014/05/01/how-new-benghazi-e-mails-are-game-changer'
p353
aS'http://www.foxnews.com/transcript/2014/11/04/krauthammer-on-how-obama-policies-play-in-midterms/'
p354
aS'http://www.foxnews.com/transcript/2015/11/17/former-spy-thinks-us-is-likely-next-on-isis-list-fiorina-blasts-obama-handling/'
p355
aS'http://www.foxnews.com/transcript/2014/03/10/malaysia-airlines-flight-beijing-missing'
p356
aS'http://www.foxnews.com/transcript/2013/12/12/sen-rubio-discusses-experience-enrolling-obamacare'
p357
aS'http://www.foxnews.com/transcript/2016/01/15/chris-christie-rubio-knows-that-is-twisting-facts-which-presidential-candidates/'
p358
aS'http://www.foxnews.com/transcript/2013/11/18/exclusive-rep-mike-rogers-benghazi-attack-eyewitnesses'
p359
aS'http://www.foxnews.com/transcript/2014/04/18/outrage-over-ny-times-op-ed-linking-veterans-hate-groups'
p360
aS'http://www.foxnews.com/transcript/2016/07/22/police-munich-shooter-had-german-and-iranian-citizenship-did-trump-paint/'
p361
aS'http://www.foxnews.com/transcript/2016/02/03/glenn-beck-cruz-campaign-actions-totally-reasonable-potus-visits-mosque-with/'
p362
aS'http://www.foxnews.com/transcript/2014/10/13/question-leadership-obama-foreign-policy-cause-for-concern/'
p363
aS'http://www.foxnews.com/transcript/2014/04/28/new-look-forces-behind-brandeis-pulling-honor-ali'
p364
aS'http://www.foxnews.com/transcript/2015/09/15/preparing-for-second-gop-debate-carson-fiorina-paul-and-rubio-talk-strategy-on/'
p365
aS'http://www.foxnews.com/transcript/2014/05/29/mitt-romney-joins-calls-va-secretary-shinsekis-resignation'
p366
aS'http://www.foxnews.com/transcript/2013/10/18/palin-fiscal-conservatives-are-more-energized-ever'
p367
aS'http://www.foxnews.com/transcript/2015/09/17/voters-share-their-reactions-to-second-gop-debate-on-kelly-file/'
p368
aS'http://www.foxnews.com/transcript/2016/04/04/ted-cruz-heidi-is-not-remotely-scared-trump-public-must-decide-abortion-issue/'
p369
aS'http://www.foxnews.com/transcript/2015/06/10/defense-claims-baltimore-prosecutor-ordered-cops-to-patrol-area-where-freddie/'
p370
aS'http://www.foxnews.com/transcript/2013/11/11/exclusive-filmmaker-documents-conditions-us-border'
p371
aS'http://www.foxnews.com/transcript/2015/11/13/rep-peter-king-paris-attack-should-be-wake-up-call-for-us-witness-on-hearing/'
p372
aS'http://www.foxnews.com/transcript/2015/02/26/exclusive-rand-paul-slams-jeb-bush-hypocrisy-on-drugs/'
p373
aS'http://www.foxnews.com/transcript/2015/11/05/ben-carson-speaks-out-about-overcoming-violent-past/'
p374
aS'http://www.foxnews.com/transcript/2014/06/25/primary-election-voters-hit-polls-amid-season-political-surprises'
p375
aS'http://www.foxnews.com/transcript/2014/01/28/president-obamas-unilateral-action-legal'
p376
aS'http://www.foxnews.com/transcript/2014/11/17/turley-democrats-creating-dangerous-obama-uber-presidency/'
p377
aS'http://www.foxnews.com/transcript/2015/05/05/exclusive-carly-fiorina-on-running-for-president-in-2016/'
p378
aS'http://www.foxnews.com/transcript/2014/04/15/new-questions-over-rep-cummings-connection-irs-probe'
p379
aS'http://www.foxnews.com/transcript/2015/09/18/trump-takes-heat-from-both-sides-rubio-looks-to-build-on-strong-debate/'
p380
aS'http://www.foxnews.com/transcript/2016/01/14/white-house-transfers-high-risk-terror-suspects-to-oman/'
p381
aS'http://www.foxnews.com/transcript/2015/10/05/rubio-gives-his-take-on-syria-fiorina-says-starting-to-scare-liberals/'
p382
aS'http://www.foxnews.com/transcript/2015/04/08/gov-kasich-says-unifying-message-is-essential-for-2016/'
p383
aS'http://www.foxnews.com/transcript/2014/08/14/former-special-ops-adviser-seth-jones-talks-isis-threat'
p384
aS'http://www.foxnews.com/transcript/2015/06/11/president-obama-to-make-policing-priority-during-final-months-in-office/'
p385
aS'http://www.foxnews.com/transcript/2014/09/16/exclusive-mariam-ibraheem-opens-about-harrowing-ordeal/'
p386
aS'http://www.foxnews.com/transcript/2014/04/30/new-bill-could-allow-feds-scour-media-hate-speech'
p387
aS'http://www.foxnews.com/transcript/2014/12/10/rep-mike-rogers-on-fears-backlash-over-cia-report/'
p388
aS'http://www.foxnews.com/transcript/2014/01/22/glenn-beck-blasts-gov-cuomos-remark-against-conservatives'
p389
aS'http://www.foxnews.com/transcript/2016/06/14/why-would-omar-mateen-wife-stay-silent-about-attack-plot/'
p390
aS'http://www.foxnews.com/transcript/2014/07/03/exclusive-bill-ayers-dinesh-dsouza-debate-american-values'
p391
aS'http://www.foxnews.com/transcript/2013/12/16/both-sides-santa-claus-debate'
p392
aS'http://www.foxnews.com/transcript/2015/03/16/kelly-file-files-foia-request-for-key-state-dept-form-in-clinton-email/'
p393
aS'http://www.foxnews.com/transcript/2015/08/03/can-trump-keep-up-momentum-walker-talks-new-hampshire-forum-gop-debate/'
p394
aS'http://www.foxnews.com/transcript/2015/09/29/what-new-polls-reveal-about-2016-favorability-rep-webster-on-running-for-house/'
p395
aS'http://www.foxnews.com/transcript/2015/03/27/hbo-going-clear-exposes-secrets-scientology/'
p396
aS'http://www.foxnews.com/transcript/2015/07/14/kelly-file-breaks-down-impact-iran-nuke-deal-on-global-security/'
p397
aS'http://www.foxnews.com/transcript/2016/03/02/rubio-majority-super-tuesday-voters-rejected-trump-cruz-talks-ominous/'
p398
aS'http://www.foxnews.com/transcript/2015/10/13/christie-takes-on-obama-foreign-policy-huckabee-reacts-to-latest-bergdahl/'
p399
aS'http://www.foxnews.com/transcript/2015/02/16/new-fears-over-imminent-collapse-us-mideast-policies/'
p400
aS'http://www.foxnews.com/transcript/2016/01/13/iran-releases-troubling-images-captive-us-sailors-did-dnc-chair-make-sexist/'
p401
aS'http://www.foxnews.com/transcript/2016/04/21/tmz-prince-treated-for-drug-overdose-days-before-his-death/'
p402
aS'http://www.foxnews.com/transcript/2014/12/05/marc-morial-eric-garner-decision-defied-common-sense/'
p403
aS'http://www.foxnews.com/transcript/2015/05/27/exclusive-rand-and-kelley-paul-open-up-about-2016-race/'
p404
aS'http://www.foxnews.com/transcript/2015/03/10/gowdy-on-clinton-emails-shame-on-me-if-trust-state-dept-to-be-neutral/'
p405
aS'http://www.foxnews.com/transcript/2014/11/07/navy-seal-who-shot-usama-bin-laden-is-revealed/'
p406
aS'http://www.foxnews.com/transcript/2015/01/05/look-back-at-baby-lisa-mystery/'
p407
aS'http://www.foxnews.com/transcript/2014/04/22/new-concerns-over-admins-plan-release-more-drug-felons'
p408
aS'http://www.foxnews.com/transcript/2015/12/16/rubio-christie-carson-and-fiorina-react-to-final-debate-2015-on-kelly-file/'
p409
aS'http://www.foxnews.com/transcript/2015/03/19/bobby-jindal-responds-to-criticism-from-muslim-activists/'
p410
aS'http://www.foxnews.com/transcript/2015/07/30/protests-erupt-in-cincinnati-after-police-shooting/'
p411
aS'http://www.foxnews.com/transcript/2014/08/26/marine-corps-veteran-blasts-isis-viral-letter'
p412
aS'http://www.foxnews.com/transcript/2016/06/15/orlando-shooter-posted-to-social-media-during-massacre/'
p413
aS'http://www.foxnews.com/transcript/2015/01/16/rep-peter-king-reacts-to-terrorist-attack-foiled-in-belgium/'
p414
aS'http://www.foxnews.com/transcript/2016/03/31/pro-clinton-pac-uses-trump-words-on-women-against-him-krauthammer-on-trump/'
p415
aS'http://www.foxnews.com/transcript/2014/12/02/mayor-knowles-on-plans-to-bridge-gap-in-ferguson/'
p416
aS'http://www.foxnews.com/transcript/2015/12/23/controversial-political-cartoon-gift-to-ted-cruz/'
p417
aS'http://www.foxnews.com/transcript/2013/10/31/rep-pallone-defends-presidents-health-plan-promise'
p418
aS'http://www.foxnews.com/transcript/2016/02/16/eugene-scalia-speaks-out-about-his-father-death/'
p419
aS'http://www.foxnews.com/transcript/2015/05/29/was-baltimore-da-marilyn-mosby-twitter-account-hacked/'
p420
aS'http://www.foxnews.com/transcript/2016/04/13/al-sharpton-talks-2016-politics-race-in-america-megyn-kelly-addresses-trump/'
p421
aS'http://www.foxnews.com/transcript/2015/05/01/exclusive-source-close-to-arresting-officers-in-freddie-gray-case-speaks-out/'
p422
aS'http://www.foxnews.com/transcript/2015/08/17/sen-jeff-sessions-on-helping-trump-craft-immigration-plan/'
p423
aS'http://www.foxnews.com/transcript/2014/10/03/jen-psaki-reacts-panetta-criticism-obama-iraq-policy-on-kelly-file/'
p424
aS'http://www.foxnews.com/transcript/2014/12/11/jose-rodriguez-disputes-claims-in-senate-cia-interrogation-report/'
p425
aS'http://www.foxnews.com/transcript/2014/03/24/americans-express-flying-fears-after-malaysia-jet-mystery'
p426
aS'http://www.foxnews.com/transcript/2014/12/03/sen-paul-sounds-off-on-fallout-over-immigration-plan/'
p427
aS'http://www.foxnews.com/transcript/2015/07/13/kate-steinle-brother-system-has-failed-my-sister-miserably/'
p428
aS'http://www.foxnews.com/transcript/2016/06/07/hume-focused-trump-appeals-to-large-slice-electorate-will-democrats-unify-or/'
p429
aS'http://www.foxnews.com/transcript/2016/01/20/trump-and-cruz-compete-for-major-conservative-endorsements/'
p430
aS'http://www.foxnews.com/transcript/2014/05/12/sen-reid-suggests-media-give-republicans-favorable-coverage'
p431
aS'http://www.foxnews.com/transcript/2015/01/23/gov-scott-walker-questions-obama-foreign-policy/'
p432
aS'http://www.foxnews.com/transcript/2016/03/30/socialite-opens-up-about-her-role-in-david-petraeus-scandal-harvard-student/'
p433
aS'http://www.foxnews.com/transcript/2015/11/16/could-united-states-be-next-paris/'
p434
aS'http://www.foxnews.com/transcript/2015/03/20/israeli-pm-netanyahu-peace-agreement-must-be-negotiated-not-imposed/'
p435
aS'http://www.foxnews.com/transcript/2013/11/22/anti-religious-group-defends-lawsuit-threat-against-christmas-toy-drive'
p436
aS'http://www.foxnews.com/transcript/2016/04/15/priebus-long-floor-fight-at-convention-highly-unlikely-confirmation-film-about/'
p437
aS'http://www.foxnews.com/transcript/2014/10/28/weather-channel-founder-blasts-climate-change/'
p438
aS'http://www.foxnews.com/transcript/2016/07/14/ex-extremist-terrorists-encourage-attacks-using-trucks-gen-flynn-islamic-world/'
p439
aS'http://www.foxnews.com/transcript/2013/11/28/white-house-fears-rush-obamacare-website'
p440
aS'http://www.foxnews.com/transcript/2014/08/12/remembering-life-robin-williams'
p441
aS'http://www.foxnews.com/transcript/2014/12/09/piers-morgan-reacts-to-time-finalists-for-person-year/'
p442
aS'http://www.foxnews.com/transcript/2014/10/17/exclusive-frontier-airlines-president-addresses-nurse-with-ebola/'
p443
aS'http://www.foxnews.com/transcript/2015/10/14/ted-cruz-ben-carson-sound-off-on-first-democratic-debate/'
p444
aS'http://www.foxnews.com/transcript/2014/03/28/exclusive-lawyer-who-led-christie-investigation-speaks-out'
p445
aS'http://www.foxnews.com/transcript/2015/03/18/did-hillary-clinton-knowingly-violate-law/'
p446
aS'http://www.foxnews.com/transcript/2014/09/15/exclusive-ward-churchill-vs-dinesh-dsouza/'
p447
aS'http://www.foxnews.com/transcript/2015/04/09/rand-paul-charles-krauthammer-is-just-wrong/'
p448
aS'http://www.foxnews.com/transcript/2014/09/22/examining-obama-history-rejecting-military-recommendations/'
p449
aS'http://www.foxnews.com/transcript/2014/04/23/chicagos-crime-crisis-what-can-be-done-end-bloodshed'
p450
aS'http://www.foxnews.com/transcript/2016/04/11/montel-williams-on-kasich-presidential-run-gen-flynn-on-fallout-from-obama/'
p451
aS'http://www.foxnews.com/transcript/2013/10/21/fit-mom-3-defends-posting-picture-asks-whats-your-excuse'
p452
aS'http://www.foxnews.com/transcript/2016/03/11/carson-dangerous-to-teach-youth-to-shut-down-free-speech-rubio-on-chicago-trump/'
p453
aS'http://www.foxnews.com/transcript/2014/08/01/amb-dermer-rush-judgment-israel-unacceptable'
p454
aS'http://www.foxnews.com/transcript/2015/08/26/exclusive-alison-parker-father-boyfriend-on-tragedy/'
p455
aS'http://www.foxnews.com/transcript/2014/09/30/rep-mccaul-warns-threat-homegrown-terrorists/'
p456
aS'http://www.foxnews.com/transcript/2013/10/24/exclusive-rep-fleming-why-sebelius-should-resign'
p457
aS'http://www.foxnews.com/transcript/2016/03/24/rep-mccaul-europe-overwhelmed-by-terror-threats-why-terrorism-can-run-in/'
p458
aS'http://www.foxnews.com/transcript/2015/03/30/gen-jack-keane-says-bowe-bergdahl-swap-was-huge-mistake/'
p459
aS'http://www.foxnews.com/transcript/2015/09/09/huckabee-slams-mainstream-media-for-attacking-kim-davis-fiorina-talks-fallout/'
p460
aS'http://www.foxnews.com/transcript/2014/05/20/mcconnell-obama-needs-step-va-scandal-and-stop-blaming-republicans'
p461
aS'http://www.foxnews.com/transcript/2014/10/14/exclusive-fort-hood-shooter-attorney-says-crime-was-not-workplace-violence/'
p462
aS'http://www.foxnews.com/transcript/2016/05/19/source-satellites-didnt-show-explosion-near-egyptair-crash/'
p463
aS'http://www.foxnews.com/transcript/2015/02/10/sen-tom-cotton-on-why-us-should-preserve-gitmo/'
p464
aS'http://www.foxnews.com/transcript/2016/06/30/former-secret-service-officer-alleges-hillary-was-abusive-gen-flynn-must-not/'
p465
aS'http://www.foxnews.com/transcript/2016/07/20/krauthammer-cruz-must-end-speech-with-endorsement-carson-talks-past-trump-jabs/'
p466
aS'http://www.foxnews.com/transcript/2016/05/13/texas-lt-gov-transgender-decree-will-cause-chaos-reporter-trump-leaked-tape/'
p467
aS'http://www.foxnews.com/transcript/2014/08/08/what-does-authorization-us-airstrikes-mean-iraq-conflict'
p468
aS'http://www.foxnews.com/transcript/2016/01/29/glenn-beck-rubio-turning-his-record-upside-down-inside-out-christie-house-cards/'
p469
aS'http://www.foxnews.com/transcript/2016/02/18/rubio-haley-talk-endorsement-pope-carson-slams-clinton-lies-tim-allen-take-on/'
p470
aS'http://www.foxnews.com/transcript/2016/01/28/ted-cruz-fox-news-debate-exchanges-were-much-more-civil/'
p471
aS'http://www.foxnews.com/transcript/2014/11/28/michael-brown-mother-sparking-more-violence-in-ferguson/'
p472
aS'http://www.foxnews.com/transcript/2015/12/22/fight-against-isis-entering-new-phase-most-bizarre-lawsuits-2015/'
p473
aS'http://www.foxnews.com/transcript/2016/02/24/kelly-file-goes-face-to-face-with-gop-candidates-at-texas-town-hall/'
p474
aS'http://www.foxnews.com/transcript/2016/03/09/kelly-file-face-to-face-with-candidates-ted-cruz/'
p475
aS'http://www.foxnews.com/transcript/2016/05/31/vets-react-to-political-fight-over-trump-fundraiser-mcconnell-talks-2016-senate/'
p476
aS'http://www.foxnews.com/transcript/2014/07/08/why-obama-may-be-secretly-backing-sen-warren-2016'
p477
aS'http://www.foxnews.com/transcript/2013/11/13/will-he-listen-clinton-urges-obama-keep-health-care-promise'
p478
aS'http://www.foxnews.com/transcript/2015/01/30/rep-peter-king-warns-gitmo-prisoner-exchanges-risk-american-lives/'
p479
aS'http://www.foxnews.com/transcript/2014/10/09/sen-ted-cruz-sounds-off-on-president-obama-political-isis-strategy/'
p480
aS'http://www.foxnews.com/transcript/2016/05/11/eric-trump-dc-republicans-need-to-get-to-know-my-father/'
p481
aS'http://www.foxnews.com/transcript/2015/09/01/donald-trump-and-jeb-bush-war-words-heats-up/'
p482
aS'http://www.foxnews.com/transcript/2015/03/24/donald-trump-want-to-see-this-country-be-great-again/'
p483
aS'http://www.foxnews.com/transcript/2014/07/10/sen-cruz-border-surge-crisis-presidents-own-creation'
p484
aS'http://www.foxnews.com/transcript/2015/09/04/kelly-file-special-black-lives-matter-and-america-finest/'
p485
aS'http://www.foxnews.com/transcript/2015/02/06/rep-mcsally-rejects-idea-that-gitmo-is-used-for-recruiting/'
p486
aS'http://www.foxnews.com/transcript/2013/12/18/why-veterans-are-outraged-over-budget-deal'
p487
aS'http://www.foxnews.com/transcript/2015/07/07/rep-goodlatte-blames-obama-administration-for-pier-shooting-why-surge-in/'
p488
aS'http://www.foxnews.com/transcript/2015/07/31/closer-look-at-2016-gop-candidates-debate-strategy/'
p489
aS'http://www.foxnews.com/transcript/2015/07/08/white-house-support-sanctuary-city-policies-under-fire-gov-abbott-slams/'
p490
aS'http://www.foxnews.com/transcript/2014/11/06/how-will-obama-handle-gop-controlled-congress/'
p491
aS'http://www.foxnews.com/transcript/2016/05/05/michael-moore-warning-to-democrats-take-trump-seriously/'
p492
aS'http://www.foxnews.com/transcript/2015/11/11/ben-carson-were-being-too-tolerant-infantile-behavior/'
p493
aS'http://www.foxnews.com/transcript/2015/01/07/sen-mike-lee-explains-how-new-congress-will-move-forward/'
p494
aS'http://www.foxnews.com/transcript/2015/06/18/new-cries-racism-over-clash-between-family-police-at-ohio-public-pool/'
p495
aS'http://www.foxnews.com/transcript/2016/01/07/nra-executive-director-responds-to-obama-challenges/'
p496
aS'http://www.foxnews.com/transcript/2014/05/14/muslim-advocates-heighten-concern-over-911-museum-film'
p497
aS'http://www.foxnews.com/transcript/2014/03/14/sen-mcconnell-challenges-obamacare-carve-out-unions'
p498
aS'http://www.foxnews.com/transcript/2015/10/09/sen-rand-paul-speaks-out-about-house-speaker-elections-true-state-his-campaign/'
p499
aS'http://www.foxnews.com/transcript/2016/03/15/michelle-fields-ben-shapiro-on-resigning-from-breitbart-kelly-responds-to-trump/'
p500
aS'http://www.foxnews.com/transcript/2015/07/29/daily-beast-reporter-defends-article-about-donald-trump-divorce/'
p501
aS'http://www.foxnews.com/transcript/2015/03/12/what-state-department-guidelines-did-hillary-clinton-violate/'
p502
aS'http://www.foxnews.com/transcript/2013/10/22/can-you-really-keep-your-doctors-if-you-them'
p503
aS'http://www.foxnews.com/transcript/2014/09/29/janice-dean-on-freddy-frogcaster-and-big-blizzard/'
p504
aS'http://www.foxnews.com/transcript/2014/04/24/marine-tells-sen-landrieu-why-shes-wrong-about-health-care'
p505
aS'http://www.foxnews.com/transcript/2014/02/26/holder-tells-state-ags-consider-selective-defense-laws'
p506
aS'http://www.foxnews.com/transcript/2013/11/06/calif-cancer-patient-losing-health-insurance'
p507
aS'http://www.foxnews.com/transcript/2016/07/05/brit-hume-comey-statement-blew-up-clinton-network-lies-speaker-paul-ryan/'
p508
aS'http://www.foxnews.com/transcript/2016/01/05/special-ops-forces-conduct-rescue-operation-in-afghanistan-truth-behind-making/'
p509
aS'http://www.foxnews.com/transcript/2013/12/13/how-spoiled-teen-avoids-jail-time-after-killing-4-people'
p510
aS'http://www.foxnews.com/transcript/2014/08/11/obama-really-engaged-global-crises'
p511
aS'http://www.foxnews.com/transcript/2015/08/25/christie-pans-trump-immigration-agenda-cruz-on-changing-birthright-citizenship/'
p512
aS'http://www.foxnews.com/transcript/2013/11/15/robert-laszewski-obamacare-fix-logistically-impossible'
p513
aS'http://www.foxnews.com/transcript/2015/07/27/duggar-family-new-challenges-after-kelly-file-exclusive/'
p514
aS'http://www.foxnews.com/transcript/2016/01/18/real-life-heroes-tell-all-about-benghazi-attack/'
p515
aS'http://www.foxnews.com/transcript/2014/08/20/exclusive-gen-hayden-alleged-isis-execution-american'
p516
aS'http://www.foxnews.com/transcript/2016/04/06/rnc-reacts-to-reports-shadow-primary-pbs-host-anger-no-excuse-to-support-racist/'
p517
aS'http://www.foxnews.com/transcript/2015/01/12/can-fight-radical-islam-while-being-politically-correct/'
p518
aS'http://www.foxnews.com/transcript/2014/08/25/white-house-changing-its-tune-isis'
p519
aS'http://www.foxnews.com/transcript/2013/11/01/could-obamacare-impact-85-percent-individual-health-insurance-policies'
p520
aS'http://www.foxnews.com/transcript/2016/07/26/bill-burton-sees-path-to-victory-for-trump-abdul-jabbar-white-society-devalues/'
p521
aS'http://www.foxnews.com/transcript/2014/02/18/sen-mike-lee-what-gives-president-authority'
p522
aS'http://www.foxnews.com/transcript/2015/12/25/kelly-file-special-charles-koch/'
p523
aS'http://www.foxnews.com/transcript/2015/10/20/how-will-establishment-react-if-trump-seizes-gop-nomination-should-pregnancy/'
p524
aS'http://www.foxnews.com/transcript/2014/07/29/israel-burning-through-us-goodwill'
p525
aS'http://www.foxnews.com/transcript/2016/04/29/huckabee-indiana-governor-put-5-on-cruz-4-on-trump-montel-williams-slams-north/'
p526
aS'http://www.foxnews.com/transcript/2016/03/16/ted-cruz-trump-is-scared-to-debate/'
p527
aS'http://www.foxnews.com/transcript/2016/02/12/four-gop-candidates-speak-at-faith-and-family-forum-in-sc/'
p528
aS'http://www.foxnews.com/transcript/2015/04/30/co-owner-baltimore-pub-attacked-by-rioters-was-very-scared/'
p529
aS'http://www.foxnews.com/transcript/2013/10/29/white-house-knew-millions-would-lose-doctors-despite-obamas-promise'
p530
aS'http://www.foxnews.com/transcript/2016/03/18/anti-trump-groups-becoming-increasingly-organized-is-it-media-job-to-confront/'
p531
aS'http://www.foxnews.com/transcript/2014/11/21/rep-montenegro-opposes-obama-immigration-plan/'
p532
aS'http://www.foxnews.com/transcript/2016/02/23/brit-hume-provides-perspective-on-nevada-caucuses-are-rubio-big-name-gop/'
p533
aS'http://www.foxnews.com/transcript/2013/10/25/exclusive-rep-fred-upton-investigating-obamacare-rollout'
p534
aS'http://www.foxnews.com/transcript/2016/02/01/cruz-rubio-campaigns-react-to-iowa-results-krauthammer-calls-trump-defeat-major/'
p535
aS'http://www.foxnews.com/transcript/2016/07/11/dallas-shootings-policing-race-in-america-and-black-lives-matter/'
p536
aS'http://www.foxnews.com/transcript/2015/06/04/exclusive-duggars-open-up-about-molestation-allegations-on-kelly-file/'
p537
aS'http://www.foxnews.com/transcript/2015/11/10/christie-not-making-main-debate-helping-campaign-abdul-jabbar-slams-carson/'
p538
aS'http://www.foxnews.com/transcript/2014/11/19/rep-henry-cuellar-discusses-controversy-over-expected-executive-action/'
p539
aS'http://www.foxnews.com/transcript/2013/12/09/fifth-grader-suspended-shooting-imaginary-arrow'
p540
aS'http://www.foxnews.com/transcript/2015/03/09/report-doj-preparing-criminal-charges-against-sen-menendez/'
p541
aS'http://www.foxnews.com/transcript/2015/04/28/activist-blasts-violent-protests-becoming-new-civil-rights-movement/'
p542
aS'http://www.foxnews.com/transcript/2014/04/02/should-us-deny-visa-irans-new-un-ambassador'
p543
aS'http://www.foxnews.com/transcript/2015/09/04/ted-cruz-unequivocally-stands-behind-defiant-court-clerk/'
p544
aS'http://www.foxnews.com/transcript/2015/06/05/exclusive-duggars-respond-to-their-critics-on-kelly-file/'
p545
aS'http://www.foxnews.com/transcript/2016/03/28/former-dia-chief-on-setbacks-in-brussels-probe-kasich-on-terror-plan-path/'
p546
aS'http://www.foxnews.com/transcript/2014/03/26/exclusive-mark-rienzi-hobby-lobby-contraception-case'
p547
aS'http://www.foxnews.com/transcript/2014/01/31/megyn-kelly-previews-bill-oreillys-obama-interview'
p548
aS'http://www.foxnews.com/transcript/2016/03/15/cruz-or-trump-plouffe-republicans-must-pick-their-poison-was-reporter-denied/'
p549
aS'http://www.foxnews.com/transcript/2014/06/30/how-hobby-lobby-ruling-will-impact-your-rights'
p550
aS'http://www.foxnews.com/transcript/2014/05/15/outraged-veterans-victims-families-want-accountability-va'
p551
aS'http://www.foxnews.com/transcript/2014/05/09/hgtv-axes-flip-it-forward-after-anti-gay-controversy'
p552
aS'http://www.foxnews.com/transcript/2014/03/13/us-intelligence-community-undermining-us-security'
p553
aS'http://www.foxnews.com/transcript/2016/04/19/brit-hume-breaks-down-trump-ny-victory-sabato-outlook-for-trump-nomination/'
p554
aS'http://www.foxnews.com/transcript/2015/12/04/white-house-goes-silent-on-terrorism-in-california-farook-former-mosque/'
p555
aS'http://www.foxnews.com/transcript/2016/03/25/europe-counterterrorism-efforts-criticized-after-attacks-former-jihadist-on-how/'
p556
aS'http://www.foxnews.com/transcript/2016/06/08/calls-grow-for-nominee-to-replace-trump-at-convention-did-freddie-gray/'
p557
aS'http://www.foxnews.com/transcript/2014/11/11/sen-mike-lee-on-looming-confirmation-battle-for-attorney-general/'
p558
aS'http://www.foxnews.com/transcript/2013/12/11/optics-obama-castro-handshake'
p559
aS'http://www.foxnews.com/transcript/2016/02/12/richard-dreyfuss-wanted-to-hear-ted-cruz-ideas-in-person/'
p560
aS'http://www.foxnews.com/transcript/2016/06/13/new-details-about-orlando-gunman-omar-mateen-from-former-classmate-colleague/'
p561
aS'http://www.foxnews.com/transcript/2016/07/28/gen-john-allen-believe-in-hillary-clinton-gen-flynn-fires-back/'
p562
aS'http://www.foxnews.com/transcript/2016/04/05/krauthammer-salutes-trump-rock-solid-floor-support-could-rubio-delegates/'
p563
aS'http://www.foxnews.com/transcript/2014/04/10/exclusive-ayaan-hirsi-ali-withdrawal-honorary-degree'
p564
aS'http://www.foxnews.com/transcript/2016/01/25/glenn-beck-explains-why-is-endorsing-ted-cruz-reacts-to-trump-attacks/'
p565
aS'http://www.foxnews.com/transcript/2016/01/26/megyn-kelly-addresses-trump-skipping-fox-news-gop-debate-tony-perkins-endorses/'
p566
aS'http://www.foxnews.com/transcript/2016/02/15/what-do-vets-think-trump-iraq-war-comments-carson-talks-state-politics/'
p567
aS'http://www.foxnews.com/transcript/2014/10/20/kelly-file-investigation-ebola-in-america/'
p568
aS'http://www.foxnews.com/transcript/2014/03/04/ukraine-political-crisis-obama'
p569
aS'http://www.foxnews.com/transcript/2014/11/18/robert-oneill-speaks-out-about-peter-kassig-execution/'
p570
aS'http://www.foxnews.com/transcript/2015/02/25/white-house-stays-silent-as-more-christians-are-kidnapped-in-mideast/'
p571
aS'http://www.foxnews.com/transcript/2015/03/17/why-team-clinton-is-changing-email-scandal-story/'
p572
aS'http://www.foxnews.com/transcript/2014/02/20/fcc-proposes-initiative-study-how-journalists-operate'
p573
aS'http://www.foxnews.com/transcript/2014/03/18/nyt-someone-expertise-programmed-u-turn-flight-370'
p574
aS'http://www.foxnews.com/transcript/2015/08/18/black-lives-matter-movement-takes-on-hillary-clinton/'
p575
aS'http://www.foxnews.com/transcript/2015/02/19/exclusive-rick-perry-reacts-to-halt-on-immigration-order/'
p576
aS'http://www.foxnews.com/transcript/2016/05/16/former-executives-on-what-it-was-like-working-for-trump-trump-jr-talks-campaign/'
p577
aS'http://www.foxnews.com/transcript/2014/07/30/mark-regev-provides-insight-us-israel-clash'
p578
aS'http://www.foxnews.com/transcript/2013/10/30/couple-who-lost-health-care-plan-feels-betrayed-white-house'
p579
aS'http://www.foxnews.com/transcript/2014/02/28/complete-us-withdrawal-afghanistan-big-mistake'
p580
aS'http://www.foxnews.com/transcript/2014/10/29/bill-burton-reacts-to-lack-voter-confidence-in-obama-ahead-midterms/'
p581
aS'http://www.foxnews.com/transcript/2015/08/19/fiorina-lays-out-plan-for-border-security-walker-supporters-reveal-home-raid/'
p582
aS'http://www.foxnews.com/transcript/2014/12/23/bernard-kerik-speaks-out-on-response-to-nypd-murders/'
p583
aS'http://www.foxnews.com/transcript/2015/01/19/former-al-qaeda-double-agent-on-danger-sleeper-cells/'
p584
aS'http://www.foxnews.com/transcript/2015/09/25/best-moments-from-top-tier-candidates-at-2015-values-voter-summit/'
p585
aS'http://www.foxnews.com/transcript/2016/07/21/guy-benson-peter-thiel-speech-important-moment-for-gop/'
p586
aS'http://www.foxnews.com/transcript/2014/12/17/man-who-waterboarded-11-mastermind-if-it-was-torture-would-be-in-jail/'
p587
aS'http://www.foxnews.com/transcript/2015/08/31/what-state-dept-document-dump-reveals-about-hillary-clinton/'
p588
aS'http://www.foxnews.com/transcript/2014/05/08/rep-trey-gowdy-how-benghazi-probe-will-move-forward'
p589
aS'http://www.foxnews.com/transcript/2015/07/31/charles-krauthammer-on-gop-debate-it-going-to-be-all-about-trump/'
p590
aS'http://www.foxnews.com/transcript/2016/01/19/how-palin-endorsement-trump-will-upend-2016-race-jeb-bush-on-offering-voters/'
p591
atp592
Rp593
.