(lp0
S'http://www.foxnews.com/transcript/2016/05/31/donald-trump-on-press-cover-me-so-inaccurately/'
p1
aS'http://www.foxnews.com/transcript/2013/06/24/sen-cruz-immigration-bill-not-designed-to-fix-problem/'
p2
aS'http://www.foxnews.com/transcript/2014/01/23/americans-fleeing-blue-states-for-red-states/'
p3
aS'http://www.foxnews.com/transcript/2014/04/08/why-do-fans-resort-to-violence-after-big-sporting-events/'
p4
aS'http://www.foxnews.com/transcript/2014/10/10/rep-chaffetz-sounds-infuriating-secret-service-scandal/'
p5
aS'http://www.foxnews.com/transcript/2014/01/09/christie-vs-clinton-which-scandal-is-more-damning/'
p6
aS'http://www.foxnews.com/transcript/2016/05/06/jan-brewer-illegal-immigration-has-extraordinary-costs-how-would-trump-take-out/'
p7
aS'http://www.foxnews.com/transcript/2014/01/13/why-dont-want-to-get-on-hillary-clinton-bad-side/'
p8
aS'http://www.foxnews.com/transcript/2014/07/14/perry-says-obama-needs-send-message-about-border-security/'
p9
aS'http://www.foxnews.com/transcript/2014/10/22/mark-levin-election-day-2014-democrat-party-disaster/'
p10
aS'http://www.foxnews.com/transcript/2014/07/17/pat-buchanan-says-border-crisis-may-tear-us-apart/'
p11
aS'http://www.foxnews.com/transcript/2014/06/12/palin-pundits-over-thinking-cantors-primary-loss/'
p12
aS'http://www.foxnews.com/transcript/2013/08/12/mark-levin-discusses-liberty-amendments/'
p13
aS'http://www.foxnews.com/transcript/2015/05/01/freddie-gray-bail-bondsman-reacts-to-new-reports-about-injury-baltimore-drug/'
p14
aS'http://www.foxnews.com/transcript/2014/12/03/mark-levin-sounds-left-undermining-justice-system/'
p15
aS'http://www.foxnews.com/transcript/2014/11/11/does-obama-really-have-authority-bypass-congress/'
p16
aS'http://www.foxnews.com/transcript/2015/06/24/dr-baden-explains-details-in-leaked-freddie-gray-autopsy-report/'
p17
aS'http://www.foxnews.com/transcript/2014/06/23/hannity-investigation-radical-muslims-march/'
p18
aS'http://www.foxnews.com/transcript/2013/06/13/giuliani-obama-actions-have-built-americans-mistrust-in-washington/'
p19
aS'http://www.foxnews.com/transcript/2014/06/10/bergdahls-platoon-leader-says-were-not-going-away/'
p20
aS'http://www.foxnews.com/transcript/2015/08/07/who-stood-out-during-first-republican-debate/'
p21
aS'http://www.foxnews.com/transcript/2015/05/15/clinton-cash-author-calls-for-another-abc-news-interview/'
p22
aS'http://www.foxnews.com/transcript/2013/08/05/from-rod-to-anthony-weiner-where-have-our-american-heroes-gone/'
p23
aS'http://www.foxnews.com/transcript/2014/09/30/exclusive-anjem-choudary-speaks-out-about-arrest/'
p24
aS'http://www.foxnews.com/transcript/2014/02/03/how-obama-downplayed-scandals-his-presidency/'
p25
aS'http://www.foxnews.com/transcript/2016/04/28/can-gop-unite-behind-any-candidate/'
p26
aS'http://www.foxnews.com/transcript/2016/04/15/cruz-new-yorkers-suffer-under-liberal-democratic-policies/'
p27
aS'http://www.foxnews.com/transcript/2014/03/12/missing-malaysian-airlines-flight-was-it-terrorism/'
p28
aS'http://www.foxnews.com/transcript/2013/09/30/senate-republicans-will-survive-shutdown-democrats-wont-survive-obamacare/'
p29
aS'http://www.foxnews.com/transcript/2014/06/13/glenn-beck-whats-plaguing-america/'
p30
aS'http://www.foxnews.com/transcript/2015/07/31/hannity-special-road-to-2016/'
p31
aS'http://www.foxnews.com/transcript/2014/05/01/sean-hannity-blasts-jay-carney-bald-faced-lie/'
p32
aS'http://www.foxnews.com/transcript/2015/05/27/pamela-geller-not-standing-down-to-radical-islam/'
p33
aS'http://www.foxnews.com/transcript/2015/09/15/candidates-that-pose-biggest-threats-to-trump-gov-walker-discusses-federal/'
p34
aS'http://www.foxnews.com/transcript/2015/08/20/hillary-clinton-private-server-scandal-continues-to-grow/'
p35
aS'http://www.foxnews.com/transcript/2013/12/13/reps-chaffetz-cotton-sound-off-on-obamacare-budget-deal/'
p36
aS'http://www.foxnews.com/transcript/2015/04/21/rand-paul-says-clinton-foundation-details-are-alarming/'
p37
aS'http://www.foxnews.com/transcript/2013/12/10/gun-control-advocates-politicizing-newtown-shooting-tragedy/'
p38
aS'http://www.foxnews.com/transcript/2015/02/25/chris-kyle-chad-littlefield-families-get-justice/'
p39
aS'http://www.foxnews.com/transcript/2016/03/24/buchanan-gop-establishment-is-right-to-be-worried-enhanced-interrogation/'
p40
aS'http://www.foxnews.com/transcript/2015/10/16/sen-paul-confident-fbi-investigation-clinton-legitimate-oliver-north-condemns/'
p41
aS'http://www.foxnews.com/transcript/2014/01/29/sens-cruz-paul-on-how-obama-is-disregarding-congress/'
p42
aS'http://www.foxnews.com/transcript/2016/03/18/hannity-in-arizona-ted-cruz/'
p43
aS'http://www.foxnews.com/transcript/2014/08/15/al-sharpton-helping-or-hurting-situation-ferguson/'
p44
aS'http://www.foxnews.com/transcript/2014/08/06/look-how-gaza-conflict-impacting-israeli-children/'
p45
aS'http://www.foxnews.com/transcript/2014/09/18/annex-security-team-members-react-being-called-liars-benghazi-hearing/'
p46
aS'http://www.foxnews.com/transcript/2014/03/13/malaysia-airlines-greatest-aviation-mystery-in-history/'
p47
aS'http://www.foxnews.com/transcript/2015/11/20/cruz-calls-obama-refugee-plan-profoundly-dangerous-how-will-house-speaker-ryan/'
p48
aS'http://www.foxnews.com/transcript/2013/08/09/what-can-take-away-from-obama-press-conference/'
p49
aS'http://www.foxnews.com/transcript/2013/10/15/is-america-heading-for-default/'
p50
aS'http://www.foxnews.com/transcript/2013/10/28/giuliani-obamacare-launch-is-total-disaster/'
p51
aS'http://www.foxnews.com/transcript/2015/07/29/media-continue-to-attack-donald-trump-rand-paul-hopes-planned-parenthood-videos/'
p52
aS'http://www.foxnews.com/transcript/2015/06/12/robin-leach-calls-new-york-times-rubio-reporting-laughable-mckinney-resident/'
p53
aS'http://www.foxnews.com/transcript/2015/02/17/why-isis-growing-too-fast-us/'
p54
aS'http://www.foxnews.com/transcript/2015/01/28/sarah-palin-explains-thought-process-possible-2016-bid/'
p55
aS'http://www.foxnews.com/transcript/2014/08/14/ferguson-police-chief-reacts-shooting-unarmed-teen-missouri/'
p56
aS'http://www.foxnews.com/transcript/2014/10/28/are-president-obamas-policies-midterm-ballot/'
p57
aS'http://www.foxnews.com/transcript/2013/09/11/bob-woodward-syria-strategy-doesnt-add-up/'
p58
aS'http://www.foxnews.com/transcript/2014/12/16/navy-seal-who-killed-bin-laden-cia-interrogations-were-not-torture/'
p59
aS'http://www.foxnews.com/transcript/2014/12/10/exclusive-jose-rodriguez-says-cia-thrown-under-bus/'
p60
aS'http://www.foxnews.com/transcript/2015/09/22/carson-stands-by-muslim-president-comments-rubio-talks-pope-cuba-visit/'
p61
aS'http://www.foxnews.com/transcript/2013/08/22/double-standard-robert-zimmerman-reacts-to-shooting-christpoher-lane/'
p62
aS'http://www.foxnews.com/transcript/2015/09/24/sean-is-joined-by-gov-christie-huckabee-sen-paul-and-rep-babin-tim-allen-talks/'
p63
aS'http://www.foxnews.com/transcript/2013/07/23/political-social-divide-grown-larger-under-president-obama/'
p64
aS'http://www.foxnews.com/transcript/2014/06/02/sen-mike-lee-proposes-solutions-growing-va-scandal/'
p65
aS'http://www.foxnews.com/transcript/2014/02/10/colo-students-find-way-to-smoke-pot-in-class/'
p66
aS'http://www.foxnews.com/transcript/2014/06/18/gov-perry-calls-southern-border-surge-national-disaster/'
p67
aS'http://www.foxnews.com/transcript/2015/12/11/jeb-bush-strategy-for-protecting-homeland-imam-was-forced-to-resign-after/'
p68
aS'http://www.foxnews.com/transcript/2013/12/23/real-world-implications-withdrawal-from-afghanistan/'
p69
aS'http://www.foxnews.com/transcript/2014/07/22/exclusive-ukrainian-ambassador-un-russias-role-mh17-crash/'
p70
aS'http://www.foxnews.com/transcript/2016/01/07/trump-vs-cruz-eligibility-questions-justified-rnc-ad-highlights-gop-diversity/'
p71
aS'http://www.foxnews.com/transcript/2014/08/21/exclusive-dick-cheney-isis-beheading-journalist-threat-us/'
p72
aS'http://www.foxnews.com/transcript/2015/03/02/jeb-bush-republicans-need-start-being-things/'
p73
aS'http://www.foxnews.com/transcript/2015/05/08/pamela-geller-faces-off-against-juan-williams-over-muhammad-event/'
p74
aS'http://www.foxnews.com/transcript/2014/02/24/exclusive-dick-cheney-calls-reduction-army-dangerous/'
p75
aS'http://www.foxnews.com/transcript/2015/09/17/trump-bush-cruz-christie-react-to-big-debate-moments-on-hannity/'
p76
aS'http://www.foxnews.com/transcript/2015/12/21/cruz-rubio-not-telling-truth-about-immigration-stance/'
p77
aS'http://www.foxnews.com/transcript/2014/08/08/exclusive-israeli-prime-minister-benjamin-netanyahu-whats-next-plan-dismantle/'
p78
aS'http://www.foxnews.com/transcript/2016/05/04/hannity-why-trump-became-presumptive-gop-nominee-trump-jr-talks-father-historic/'
p79
aS'http://www.foxnews.com/transcript/2013/10/10/house-gop-sees-slight-progress-after-obama-meeting/'
p80
aS'http://www.foxnews.com/transcript/2016/03/23/gingrich-when-will-our-leaders-realize-are-at-war-ramos-accused/'
p81
aS'http://www.foxnews.com/transcript/2015/09/22/carsons-remarks-spark-debate-over-faith-and-politics-gingrich-steyn-weigh-in-on/'
p82
aS'http://www.foxnews.com/transcript/2014/08/27/white-house-misleading-press-about-obamas-isis-analogy/'
p83
aS'http://www.foxnews.com/transcript/2015/08/07/gop-candidates-recap-their-debate-performances-on-hannity/'
p84
aS'http://www.foxnews.com/transcript/2015/10/28/gop-candidates-sound-off-on-cnbc-debate-on-hannity/'
p85
aS'http://www.foxnews.com/transcript/2015/09/18/2016-gop-horse-race-media-instigate-feuds-in-unpredictable-primary/'
p86
aS'http://www.foxnews.com/transcript/2016/06/28/gingrich-reacts-to-istanbul-airport-attacks-trump-media-coverage-benghazi-hero/'
p87
aS'http://www.foxnews.com/transcript/2014/11/18/exclusive-bill-cosby-accuser-speaks-out/'
p88
aS'http://www.foxnews.com/transcript/2016/06/10/trump-jr-on-clintons-americans-see-phoniness/'
p89
aS'http://www.foxnews.com/transcript/2014/01/31/exclusive-dinesh-dsouza-is-undeterred-by-backlash/'
p90
aS'http://www.foxnews.com/transcript/2013/09/09/sen-lee-us-involvement-in-syria-is-terrible-idea/'
p91
aS'http://www.foxnews.com/transcript/2015/08/13/gingrich-explains-appeal-outsider-candidates-fiorina-says-clinton-lied/'
p92
aS'http://www.foxnews.com/transcript/2016/02/22/trump-explains-how-became-conservative-answers-voters-questions-in-las-vegas/'
p93
aS'http://www.foxnews.com/transcript/2015/07/06/bobby-jindal-opens-up-about-his-2016-presidential-run-on-hannity/'
p94
aS'http://www.foxnews.com/transcript/2016/01/25/robertsons-open-up-about-endorsements-sen-paul-plans-to-outperform-polls/'
p95
aS'http://www.foxnews.com/transcript/2015/02/09/will-new-national-security-strategy-work/'
p96
aS'http://www.foxnews.com/transcript/2013/06/18/kansas-secretary-state-kris-kobach-responds-to-immigration-protests-on-home/'
p97
aS'http://www.foxnews.com/transcript/2015/01/16/exclusive-screenwriter-significance-american-sniper/'
p98
aS'http://www.foxnews.com/transcript/2013/07/31/sen-rubio-obamacare-is-eviscerating-american-economy/'
p99
aS'http://www.foxnews.com/transcript/2014/12/18/ted-cruz-calls-obamas-cuba-decision-tragic-mistake/'
p100
aS'http://www.foxnews.com/transcript/2016/01/26/cruz-challenges-trump-to-one-on-one-debate-rubio-carson-talk-iowa/'
p101
aS'http://www.foxnews.com/transcript/2015/02/11/did-nbc-make-right-choice-suspend-brian-williams/'
p102
aS'http://www.foxnews.com/transcript/2013/11/22/millennials-tackle-their-generation-worries/'
p103
aS'http://www.foxnews.com/transcript/2015/12/03/first-moves-president-trump-would-make-against-isis/'
p104
aS'http://www.foxnews.com/transcript/2015/04/10/south-carolina-florida-police-shooting-videos-raise-new-questions/'
p105
aS'http://www.foxnews.com/transcript/2016/01/15/ted-cruz-voters-could-not-care-less-about-my-birthplace-fiorina-hillary-has/'
p106
aS'http://www.foxnews.com/transcript/2015/04/07/ann-coulter-reacts-to-how-gop-primary-race-is-shaping-up-for-2016/'
p107
aS'http://www.foxnews.com/transcript/2014/03/20/does-gen-mcinerney-stand-by-controversial-pakistan-theory/'
p108
aS'http://www.foxnews.com/transcript/2013/07/16/why-racial-tensions-persist-after-zimmerman-trial-verdict/'
p109
aS'http://www.foxnews.com/transcript/2014/04/18/hannity-revisits-interview-with-rev-billy-graham/'
p110
aS'http://www.foxnews.com/transcript/2014/04/04/spring-break-exposed-panama-city-beach-officials-respond/'
p111
aS'http://www.foxnews.com/transcript/2014/01/16/lindsey-graham-were-just-starting-on-benghazi/'
p112
aS'http://www.foxnews.com/transcript/2013/10/18/who-should-be-held-accountable-for-obamacare-rollout/'
p113
aS'http://www.foxnews.com/transcript/2014/06/20/rand-paul-iraq-crisis-i-would-follow-constitution/'
p114
aS'http://www.foxnews.com/transcript/2016/05/20/data-indicates-smoke-inside-egyptair-plane-before-crash/'
p115
aS'http://www.foxnews.com/transcript/2013/07/24/has-president-obama-utterly-failed-urban-america/'
p116
aS'http://www.foxnews.com/transcript/2013/09/12/played-by-putin-russia-takes-control-syrian-crisis/'
p117
aS'http://www.foxnews.com/transcript/2013/09/24/why-defunding-obamacare-is-only-tool-for-republicans/'
p118
aS'http://www.foxnews.com/transcript/2016/05/16/carson-press-has-shirked-its-duty-to-be-honest-exclusive-former-bergdahl/'
p119
aS'http://www.foxnews.com/transcript/2013/12/11/paul-ryan-budget-agreement-is-step-in-right-direction/'
p120
aS'http://www.foxnews.com/transcript/2014/09/09/pat-buchanan-sounds-about-dangers-immigration-crisis/'
p121
aS'http://www.foxnews.com/transcript/2015/08/27/sen-rubio-talks-channeling-american-voters-anger-into-activism/'
p122
aS'http://www.foxnews.com/transcript/2016/03/16/how-would-contested-gop-convention-play-out-rnc-chairman-contested-convention/'
p123
aS'http://www.foxnews.com/transcript/2016/03/29/donald-trump-slams-michelle-fields-for-changing-her-story/'
p124
aS'http://www.foxnews.com/transcript/2015/06/05/exclusive-rick-perry-details-2016-presidential-run-on-hannity/'
p125
aS'http://www.foxnews.com/transcript/2015/01/20/chris-kyles-friends-react-liberal-hollywood-attacking-american-sniper/'
p126
aS'http://www.foxnews.com/transcript/2016/03/07/trump-opens-up-about-being-conservative-cruz-says-trump-pretends-to-be-outsider/'
p127
aS'http://www.foxnews.com/transcript/2014/07/25/us-muslim-civil-rights-group-showing-sympathy-terrorists/'
p128
aS'http://www.foxnews.com/transcript/2015/02/16/can-american-forces-save-baghdad-falling-isis/'
p129
aS'http://www.foxnews.com/transcript/2013/08/08/is-american-dream-dying-under-obama/'
p130
aS'http://www.foxnews.com/transcript/2016/06/24/giuliani-brexit-major-setback-for-obama-clinton-kerry/'
p131
aS'http://www.foxnews.com/transcript/2016/03/03/cornel-west-trump-dangerous-neo-fascist-in-making-fmr-mexico-president-walls/'
p132
aS'http://www.foxnews.com/transcript/2014/11/20/what-expect-obamas-executive-immigration-order/'
p133
aS'http://www.foxnews.com/transcript/2014/12/12/bachmann-king-why-conservatives-oppose-spending-bill/'
p134
aS'http://www.foxnews.com/transcript/2014/04/23/government-gone-wild-feds-eye-another-land-grab/'
p135
aS'http://www.foxnews.com/transcript/2014/04/11/how-obamacare-cloud-will-hang-over-dems-in-2014/'
p136
aS'http://www.foxnews.com/transcript/2014/05/13/nolan-ryan-talks-baseball-and-barbecue/'
p137
aS'http://www.foxnews.com/transcript/2013/09/13/american-voters-take-on-crisis-in-syria/'
p138
aS'http://www.foxnews.com/transcript/2014/05/22/whistleblower-drug-abuse-theft-covered-up-at-miami-va-hospital/'
p139
aS'http://www.foxnews.com/transcript/2013/06/19/rubio-addresses-conservatives-concerns-with-immigration-reform-bill/'
p140
aS'http://www.foxnews.com/transcript/2014/12/05/sen-rand-paul-eric-garner-didnt-need-die/'
p141
aS'http://www.foxnews.com/transcript/2014/08/04/family-members-911-victims-clintons-missed-chance-kill-bin-laden/'
p142
aS'http://www.foxnews.com/transcript/2015/10/27/which-candidate-will-stand-out-at-gop-debate-jordan-chaffetz-seek-impeachment/'
p143
aS'http://www.foxnews.com/transcript/2015/08/25/mia-love-sounds-off-about-planned-parenthood-controversy/'
p144
aS'http://www.foxnews.com/transcript/2014/06/04/friend-sgt-bergdahl-speaks-out-amid-release/'
p145
aS'http://www.foxnews.com/transcript/2014/12/15/rand-paul-says-spending-fight-crummy-way-run-government/'
p146
aS'http://www.foxnews.com/transcript/2016/04/29/cruz-trump-boehner-and-clinton-part-same-corrupt-system-carly-fiorina-on/'
p147
aS'http://www.foxnews.com/transcript/2014/11/24/exclusive-willie-robertson-duck-dynasty-musical/'
p148
aS'http://www.foxnews.com/transcript/2014/02/21/son-god-chronicles-life-and-death-jesus-christ/'
p149
aS'http://www.foxnews.com/transcript/2013/07/19/what-role-did-race-play-in-trayvon-martin-death/'
p150
aS'http://www.foxnews.com/transcript/2014/04/21/cliven-bundy-takes-on-nevada-ranch-rhetoric/'
p151
aS'http://www.foxnews.com/transcript/2015/05/20/mark-steyn-blasts-hillary-clinton-campaign/'
p152
aS'http://www.foxnews.com/transcript/2013/09/25/sen-rand-paul-on-why-willing-to-stand-with-cruz/'
p153
aS'http://www.foxnews.com/transcript/2015/07/15/trump-reacts-to-obama-iran-deal-presser-el-chapo-escape-on-hannity/'
p154
aS'http://www.foxnews.com/transcript/2014/01/03/exclusive-rand-paul-to-file-lawsuit-against-nsa/'
p155
aS'http://www.foxnews.com/transcript/2015/12/09/muslim-community-leader-supports-trump-proposed-ban-christie-fiorina-talk/'
p156
aS'http://www.foxnews.com/transcript/2013/10/11/expectations-vs-reality-under-obama-administration/'
p157
aS'http://www.foxnews.com/transcript/2014/11/04/dr-ben-carson-dems-playing-race-card-midterms/'
p158
aS'http://www.foxnews.com/transcript/2014/11/06/mia-love-what-it-means-win-historic-election/'
p159
aS'http://www.foxnews.com/transcript/2014/03/04/rumsfeld-on-russia-power-grab-american-weakness-at-root-problem/'
p160
aS'http://www.foxnews.com/transcript/2016/06/27/former-secret-service-officer-calls-hillary-clinton-dictator-details-bill/'
p161
aS'http://www.foxnews.com/transcript/2015/12/17/trump-rips-joke-budget-process-says-will-make-america-safe-again/'
p162
aS'http://www.foxnews.com/transcript/2015/11/05/fiorina-prepares-for-view-showdown-paul-reacts-to-anti-america-demonstrations/'
p163
aS'http://www.foxnews.com/transcript/2014/10/01/sen-mccain-joe-lieberman-sound-obamas-isis-plan/'
p164
aS'http://www.foxnews.com/transcript/2013/09/23/sen-ted-cruz-defunding-obamacare-is-multistage-fight/'
p165
aS'http://www.foxnews.com/transcript/2014/04/09/nevada-rancher-threatens-range-war-against-federal-government/'
p166
aS'http://www.foxnews.com/transcript/2013/08/16/mark-levin-brings-constitution-to-life/'
p167
aS'http://www.foxnews.com/transcript/2014/09/04/exclusive-friend-and-colleague-remembers-steven-sotloff/'
p168
aS'http://www.foxnews.com/transcript/2013/10/08/exclusive-mitt-romney-on-how-would-reopen-government/'
p169
aS'http://www.foxnews.com/transcript/2014/10/07/exclusive-one-one-piers-morgan/'
p170
aS'http://www.foxnews.com/transcript/2014/07/15/exclusive-reaction-bergdahls-return-active-duty/'
p171
aS'http://www.foxnews.com/transcript/2014/10/31/ted-cruz-we-are-verge-historic-election-night/'
p172
aS'http://www.foxnews.com/transcript/2015/02/04/rep-zinke-obama-denial-about-threat-islamic-extremism/'
p173
aS'http://www.foxnews.com/transcript/2013/08/26/sen-cruz-us-needs-to-focus-on-protecting-national-security/'
p174
aS'http://www.foxnews.com/transcript/2013/08/15/obama-role-in-egypt-unrest-up-for-debate/'
p175
aS'http://www.foxnews.com/transcript/2015/03/25/ayaan-hirsi-ali-discusses-new-book-heretic/'
p176
aS'http://www.foxnews.com/transcript/2014/01/27/exclusive-mitt-romney-previews-state-union/'
p177
aS'http://www.foxnews.com/transcript/2015/10/21/bill-bennett-not-okay-with-trump-candidacy-police-seek-public-support-after/'
p178
aS'http://www.foxnews.com/transcript/2013/11/04/reince-priebus-says-republican-party-is-united/'
p179
aS'http://www.foxnews.com/transcript/2014/08/22/former-cia-officials-blast-obamas-handling-terror-threat-middle-east/'
p180
aS'http://www.foxnews.com/transcript/2015/12/22/should-clinton-apologize-to-trump-for-isis-claim-giuliani-blasts-obama-complete/'
p181
aS'http://www.foxnews.com/transcript/2015/04/28/police-attempt-to-restore-order-in-baltimore-amid-riots/'
p182
aS'http://www.foxnews.com/transcript/2013/06/28/zimmerman-trial-is-prosecution-still-in-game/'
p183
aS'http://www.foxnews.com/transcript/2015/12/10/gingrich-calls-for-us-muslims-to-identify-radicals-rand-paul-proposes/'
p184
aS'http://www.foxnews.com/transcript/2013/11/14/president-in-panic-mode-over-affordable-care-act/'
p185
aS'http://www.foxnews.com/transcript/2014/10/21/how-worried-should-americans-be-about-ebola/'
p186
aS'http://www.foxnews.com/transcript/2014/09/24/muslim-worlds-reaction-us-airstrikes-against-isis/'
p187
aS'http://www.foxnews.com/transcript/2015/10/13/cruz-slams-left-antipathy-for-christians-gingrich-calls-political-outsider/'
p188
aS'http://www.foxnews.com/transcript/2013/07/08/sen-paul-us-continuing-to-send-aid-to-egypt-is-mistake/'
p189
aS'http://www.foxnews.com/transcript/2014/11/28/does-officer-darren-wilson-fear-his-life/'
p190
aS'http://www.foxnews.com/transcript/2016/06/21/did-doj-edit-uncensored-transcript-orlando-shooter-nra-sounds-off-on-left-gun/'
p191
aS'http://www.foxnews.com/transcript/2015/06/25/is-confederate-flag-controversy-democratic-problem/'
p192
aS'http://www.foxnews.com/transcript/2014/04/30/sharyl-attkisson-bret-baier-on-new-benghazi-smoking-gun/'
p193
aS'http://www.foxnews.com/transcript/2016/05/05/gingrich-speaker-ryan-made-big-mistake-priebus-trump-and-ryan-to-sit-down-talk/'
p194
aS'http://www.foxnews.com/transcript/2015/08/12/trump-on-iran-will-know-am-not-playing-games/'
p195
aS'http://www.foxnews.com/transcript/2016/02/23/are-gop-rivals-copying-trump-immigration-plan/'
p196
aS'http://www.foxnews.com/transcript/2014/08/05/exclusive-sean-hannity-tours-hamas-tunnels/'
p197
aS'http://www.foxnews.com/transcript/2014/03/25/romney-obama-should-have-seen-ukraine-crisis-coming/'
p198
aS'http://www.foxnews.com/transcript/2016/05/26/jindal-hope-world-leaders-are-rattled-by-trump-ariz-sheriff-warns-about-drug/'
p199
aS'http://www.foxnews.com/transcript/2015/01/08/radical-imam-anjem-choudary-charlie-hebdo-attack/'
p200
aS'http://www.foxnews.com/transcript/2014/09/16/mccain-lack-mideast-help-result-american-indecision/'
p201
aS'http://www.foxnews.com/transcript/2015/07/13/scott-walker-goes-inside-his-plan-for-america-on-hannity/'
p202
aS'http://www.foxnews.com/transcript/2013/10/02/sen-cruz-government-standoff-perfect-example-liberal-arrogance/'
p203
aS'http://www.foxnews.com/transcript/2016/06/07/gingrich-trump-pivot-speech-big-step-in-right-direction-trump-calls-trump-u/'
p204
aS'http://www.foxnews.com/transcript/2013/09/17/navy-yard-rampage-revives-gun-control-debate/'
p205
aS'http://www.foxnews.com/transcript/2016/06/30/trump-says-isis-emerged-on-hillary-clinton-watch-outlines-biggest-mistakes-in/'
p206
aS'http://www.foxnews.com/transcript/2016/05/17/donald-trump-jr-reacts-to-primary-results-former-miss-usa-contestant-shares-her/'
p207
aS'http://www.foxnews.com/transcript/2015/03/13/did-obama-administration-fan-flames-ferguson/'
p208
aS'http://www.foxnews.com/transcript/2015/02/02/exclusive-chris-kyles-brother-american-sniper/'
p209
aS'http://www.foxnews.com/transcript/2015/10/29/rnc-chair-blasts-cnbc-crap-sandwich-debate-bush-kasich-call-out-gop-rivals/'
p210
aS'http://www.foxnews.com/transcript/2013/06/26/rep-paul-ryan-seeks-workable-legal-immigration-system/'
p211
aS'http://www.foxnews.com/transcript/2015/04/17/good-samaritan-brutally-beaten-by-mob-teens-speaks-out/'
p212
aS'http://www.foxnews.com/transcript/2014/03/27/northwestern-union-victory-shaping-future-college-sports/'
p213
aS'http://www.foxnews.com/transcript/2014/07/03/rand-paul-calls-border-crisis-humanitarian-nightmare/'
p214
aS'http://www.foxnews.com/transcript/2015/10/08/mccarthy-departure-rocks-house-speaker-race-kasich-makes-case-for-dramatic/'
p215
aS'http://www.foxnews.com/transcript/2013/12/17/sen-rubio-budget-plan-doesnt-deal-with-debt/'
p216
aS'http://www.foxnews.com/transcript/2016/06/03/ingraham-trump-shouldnt-get-bogged-down-by-battling-media/'
p217
aS'http://www.foxnews.com/transcript/2015/03/05/giuliani-fears-us-iran-negotiations-could-result-nuclear-war/'
p218
aS'http://www.foxnews.com/transcript/2014/09/11/sen-mccain-responds-obamas-isis-strategy/'
p219
aS'http://www.foxnews.com/transcript/2015/06/18/exclusive-donald-trump-on-what-made-him-run-for-president-on-hannity/'
p220
aS'http://www.foxnews.com/transcript/2016/01/06/christie-explains-changed-stance-on-gun-laws-trump-jr-talks-father-candidacy/'
p221
aS'http://www.foxnews.com/transcript/2016/04/18/trump-pointing-to-corruption-political-system/'
p222
aS'http://www.foxnews.com/transcript/2016/02/19/cruz-south-carolinians-want-conservative-president-rubio-sc-voters-to-play/'
p223
aS'http://www.foxnews.com/transcript/2014/06/11/dave-brat-reacts-upset-win-over-eric-cantor-virginia-republican-primary/'
p224
aS'http://www.foxnews.com/transcript/2013/06/21/is-era-identity-politics-over/'
p225
aS'http://www.foxnews.com/transcript/2015/12/18/hannity-special-dual-threat-political-correctness-and-jihad/'
p226
aS'http://www.foxnews.com/transcript/2015/11/02/rnc-priebus-speaks-out-on-debate-reforms-christie-huckabee-weigh-in-on-issue/'
p227
aS'http://www.foxnews.com/transcript/2013/10/09/exclusive-anthony-weiner-debates-debt-ceiling-on-hannity/'
p228
aS'http://www.foxnews.com/transcript/2015/11/16/gen-flynn-gingrich-giuliani-and-carson-talk-isis-strategy-on-hannity/'
p229
aS'http://www.foxnews.com/transcript/2014/06/03/navy-seal-who-went-missions-save-bergdahl-speaks-out/'
p230
aS'http://www.foxnews.com/transcript/2014/09/19/gov-perry-americans-are-substantially-concerned-about-border/'
p231
aS'http://www.foxnews.com/transcript/2014/10/02/gov-perry-ebola-case-taken-extremely-seriously-texas/'
p232
aS'http://www.foxnews.com/transcript/2015/10/15/carson-talks-uniting-america-kasich-plans-to-return-money-power-to-states/'
p233
aS'http://www.foxnews.com/transcript/2014/06/06/no-apologies-taliban-trade-families-fallen-respond-obama/'
p234
aS'http://www.foxnews.com/transcript/2014/04/25/how-states-can-regulate-enforce-legalized-marijuana/'
p235
aS'http://www.foxnews.com/transcript/2015/09/02/fiorina-there-no-question-that-am-among-frontrunners/'
p236
aS'http://www.foxnews.com/transcript/2013/07/11/mainstream-media-coverage-zimmerman-trial/'
p237
aS'http://www.foxnews.com/transcript/2015/02/13/will-bill-clintons-epstein-connection-hurt-hillary-2016/'
p238
aS'http://www.foxnews.com/transcript/2015/06/01/hannity-special-commencement-2015-best-and-worst-advice/'
p239
aS'http://www.foxnews.com/transcript/2013/06/25/why-will-sen-rand-paul-vote-against-immigration-bill/'
p240
aS'http://www.foxnews.com/transcript/2014/01/08/could-republicans-make-big-gains-in-2014-midterm-elections/'
p241
aS'http://www.foxnews.com/transcript/2015/03/06/ann-coulter-questions-obamas-nuclear-talks-iran/'
p242
aS'http://www.foxnews.com/transcript/2013/08/21/karl-rove-privacy-concerns-face-generation-gap/'
p243
aS'http://www.foxnews.com/transcript/2015/04/15/rnc-chair-priebus-hillary-clinton-out-touch-not-trustworthy/'
p244
aS'http://www.foxnews.com/transcript/2015/03/23/what-message-does-nuclear-deal-iran-send/'
p245
aS'http://www.foxnews.com/transcript/2015/05/28/exclusive-rick-santorum-explains-why-running-for-president-on-hannity/'
p246
aS'http://www.foxnews.com/transcript/2015/08/03/how-will-donald-trump-do-on-big-debate-stage/'
p247
aS'http://www.foxnews.com/transcript/2015/03/10/perry-iran-talks-obama-not-being-open-and-honest-congress/'
p248
aS'http://www.foxnews.com/transcript/2015/07/16/chattanooga-shooting-witness-was-unloading-bullets/'
p249
aS'http://www.foxnews.com/transcript/2015/09/29/rubio-cruz-talk-foreign-policy-govt-shutdown-mccarthy-on-how-differs-from/'
p250
aS'http://www.foxnews.com/transcript/2015/11/30/double-standards-reporting-on-trump-huckabee-blasts-obama-for-apologizing-for/'
p251
aS'http://www.foxnews.com/transcript/2015/05/21/insight-on-rand-paul-patriot-act-filibuster/'
p252
aS'http://www.foxnews.com/transcript/2015/03/11/mark-steyn-says-clintons-email-explanation-doesnt-pass-smell-test/'
p253
aS'http://www.foxnews.com/transcript/2014/12/19/connie-mack-restoring-americas-greatness-2015/'
p254
aS'http://www.foxnews.com/transcript/2013/09/16/navy-yard-shooter-aaron-alexis-security-clearance-questioned/'
p255
aS'http://www.foxnews.com/transcript/2014/12/30/rep-gohmert-how-republican-congress-will-work-obama/'
p256
aS'http://www.foxnews.com/transcript/2013/09/03/sen-paul-administration-didnt-make-compelling-case/'
p257
aS'http://www.foxnews.com/transcript/2013/10/23/obama-sebelius-were-clueless-about-website-glitches/'
p258
aS'http://www.foxnews.com/transcript/2014/07/30/rubio-says-enforcement-reform-key-immigration/'
p259
aS'http://www.foxnews.com/transcript/2014/08/26/officer-darren-wilson-supporter-speaks-out/'
p260
aS'http://www.foxnews.com/transcript/2015/06/11/hannity-challenges-arrested-teen-attorney-in-texas-pool-party-incident/'
p261
aS'http://www.foxnews.com/transcript/2016/06/09/father-speaks-out-after-young-son-targeted-by-anti-trump-mob-pirro-clinton/'
p262
aS'http://www.foxnews.com/transcript/2015/07/17/hannity-special-hunt-for-el-chapo/'
p263
aS'http://www.foxnews.com/transcript/2015/03/20/amb-ron-dermer-addresses-rift-between-obama-and-netanyahu/'
p264
aS'http://www.foxnews.com/transcript/2014/10/24/ebola-patient-nyc-sparks-fears-more-cases-us/'
p265
aS'http://www.foxnews.com/transcript/2015/08/11/donald-trump-talks-staying-on-top-polls-strategies-for-immigration-health-care/'
p266
aS'http://www.foxnews.com/transcript/2013/12/02/glenn-beck-on-state-gop/'
p267
aS'http://www.foxnews.com/transcript/2016/03/11/trump-cancelling-chicago-rally-very-good-decision/'
p268
aS'http://www.foxnews.com/transcript/2015/11/24/chicago-releases-video-showing-black-teen-fatal-shooting/'
p269
aS'http://www.foxnews.com/transcript/2014/03/05/rutgers-protests-condoleezza-rice-as-graduation-speaker/'
p270
aS'http://www.foxnews.com/transcript/2015/02/06/krauthammer-obamas-prayer-breakfast-remarks-banal-and-offensive/'
p271
aS'http://www.foxnews.com/transcript/2015/10/01/how-would-president-fiorina-deal-with-putin/'
p272
aS'http://www.foxnews.com/transcript/2015/12/16/jeb-blasts-trump-for-not-being-serious-candidate/'
p273
aS'http://www.foxnews.com/transcript/2014/01/02/challenges-facing-americans-in-2014/'
p274
aS'http://www.foxnews.com/transcript/2013/10/03/sen-lee-on-why-government-should-fight-collusive-spending/'
p275
aS'http://www.foxnews.com/transcript/2014/01/17/sarah-palin-studio-audience-debate-parenting-in-america/'
p276
aS'http://www.foxnews.com/transcript/2013/10/16/exclusive-sens-cruz-lee-on-lousy-senate-plan/'
p277
aS'http://www.foxnews.com/transcript/2015/07/01/exclusive-chris-christie-explains-why-is-running-for-president-on-hannity/'
p278
aS'http://www.foxnews.com/transcript/2016/01/04/cruz-washington-cartel-is-panicking-gingrich-political-outsiders-represent-end/'
p279
aS'http://www.foxnews.com/transcript/2016/02/03/rubio-rejects-establishment-label-trump-supporter-cruz-campaign-acted/'
p280
aS'http://www.foxnews.com/transcript/2014/04/07/muslim-parent-says-easter-egg-flyer-violates-constitution/'
p281
aS'http://www.foxnews.com/transcript/2016/01/27/cruz-picks-time-and-place-in-trump-debate-challenge-bush-kasich-christie-talk-iowa/'
p282
aS'http://www.foxnews.com/transcript/2015/12/02/fbi-uses-robot-to-search-suspect-home-in-san-bernardino-shooting/'
p283
aS'http://www.foxnews.com/transcript/2015/05/05/organizer-muhammad-exhibit-in-texas-speaks-out/'
p284
aS'http://www.foxnews.com/transcript/2013/06/17/sen-rand-paul-questions-obama-leadership/'
p285
aS'http://www.foxnews.com/transcript/2013/12/09/lindsey-graham-democrats-will-break-over-obamacare/'
p286
aS'http://www.foxnews.com/transcript/2014/02/06/is-sochi-ready-for-olympics/'
p287
aS'http://www.foxnews.com/transcript/2015/06/02/ann-coulter-sounds-off-on-immigration-policies-in-new-book-adios-america/'
p288
aS'http://www.foxnews.com/transcript/2014/09/25/exclusive-dick-and-liz-cheney-fight-against-isis/'
p289
aS'http://www.foxnews.com/transcript/2013/09/27/are-americans-ready-for-obamacare/'
p290
aS'http://www.foxnews.com/transcript/2013/08/02/is-defunding-obamacare-best-strategy/'
p291
aS'http://www.foxnews.com/transcript/2016/06/01/gingrich-trump-experience-is-totally-unique/'
p292
aS'http://www.foxnews.com/transcript/2014/07/10/exclusive-rick-perry-his-meeting-president-obama/'
p293
aS'http://www.foxnews.com/transcript/2014/06/09/fallen-soldiers-mother-calls-bergdahl-release-distressing/'
p294
aS'http://www.foxnews.com/transcript/2015/03/17/could-benjamin-netanyahu-lose-israeli-elections/'
p295
aS'http://www.foxnews.com/transcript/2014/10/17/sen-cruz-calls-travel-ban-ebola-infected-countries/'
p296
aS'http://www.foxnews.com/transcript/2013/09/27/exclusive-sen-ted-cruz-speaks-out-party-opposition-marathon-anti-obamacare/'
p297
aS'http://www.foxnews.com/transcript/2015/05/11/sen-rand-paul-blasts-mccain-over-criticism-nsa-stance/'
p298
aS'http://www.foxnews.com/transcript/2015/04/20/panama-city-beach-locals-react-to-spring-break-horrors/'
p299
aS'http://www.foxnews.com/transcript/2015/06/09/witness-in-texas-pool-party-incident-speaks-out-palin-blasts-media-duggar/'
p300
aS'http://www.foxnews.com/transcript/2015/04/09/gov-scott-walker-fires-back-at-president-obama/'
p301
aS'http://www.foxnews.com/transcript/2013/10/31/ron-johnson-bill-would-preserve-existing-health-care-plans/'
p302
aS'http://www.foxnews.com/transcript/2014/08/25/how-ferguson-sheds-light-racial-divide-america/'
p303
aS'http://www.foxnews.com/transcript/2013/12/12/kathleen-sebelius-obstructing-congressional-investigation/'
p304
aS'http://www.foxnews.com/transcript/2016/05/27/gingrich-predicts-trump-will-transform-electoral-map-ingraham-hillary-stood-by/'
p305
aS'http://www.foxnews.com/transcript/2016/04/08/trump-campaign-capitalizes-on-new-york-values-comments-mike-huckabee-john/'
p306
aS'http://www.foxnews.com/transcript/2015/10/12/donald-trump-on-hannity-have-to-rebuild-our-country/'
p307
aS'http://www.foxnews.com/transcript/2015/09/01/steyn-calls-server-scandal-devastating-to-clinton-christie-takes-on-2016/'
p308
aS'http://www.foxnews.com/transcript/2014/07/09/dinesh-dsouza-costcos-political-decision-pull-book/'
p309
aS'http://www.foxnews.com/transcript/2015/08/05/inside-first-republican-debate-on-hannity/'
p310
aS'http://www.foxnews.com/transcript/2014/12/04/dr-michael-baden-offers-insight-death-eric-garner/'
p311
aS'http://www.foxnews.com/transcript/2014/12/09/giuliani-i-saved-more-black-lives-any-other-nyc-mayor/'
p312
aS'http://www.foxnews.com/transcript/2015/07/30/rick-perry-urges-for-real-focus-on-economy/'
p313
aS'http://www.foxnews.com/transcript/2014/06/27/exclusive-why-chris-mcdaniel-refuses-concede-cochran/'
p314
aS'http://www.foxnews.com/transcript/2016/04/22/prosecutors-plot-exposed-to-bring-isis-to-us-through-mexico-firms-that-paid-for/'
p315
aS'http://www.foxnews.com/transcript/2014/10/03/exclusive-reince-priebus-gops-midterm-election-strategy/'
p316
aS'http://www.foxnews.com/transcript/2015/03/04/sen-paul-iran-nuke-negotations-good-deal-or-no-deal-congress/'
p317
aS'http://www.foxnews.com/transcript/2016/07/05/legality-fbi-recommendation-in-hillary-clinton-server-probe/'
p318
aS'http://www.foxnews.com/transcript/2016/04/19/trump-kids-there-no-place-like-home-trump-convention-manager-there-wont-be/'
p319
aS'http://www.foxnews.com/transcript/2013/08/28/obama-administration-sending-wrong-message-to-syria/'
p320
aS'http://www.foxnews.com/transcript/2016/03/22/trump-on-syrian-refugees-in-us-theyre-going-back-what-do-know-about-brussels/'
p321
aS'http://www.foxnews.com/transcript/2014/08/19/dr-ben-carson-ferguson-black-community-has-be-honest-ourselves/'
p322
aS'http://www.foxnews.com/transcript/2015/08/24/can-biden-save-democratic-party-from-clinton/'
p323
aS'http://www.foxnews.com/transcript/2016/03/28/cruz-wives-and-families-should-be-off-limits-gingrich-feud-should-be-wake-up/'
p324
aS'http://www.foxnews.com/transcript/2014/12/02/darren-wilsons-attorneys-speak-out-after-his-resignation/'
p325
aS'http://www.foxnews.com/transcript/2014/08/01/does-washington-have-lack-understanding-radical-islam/'
p326
aS'http://www.foxnews.com/transcript/2015/05/07/muhammad-event-organizer-radical-imam-debate-texas-shooting/'
p327
aS'http://www.foxnews.com/transcript/2015/01/13/exclusive-wayne-kyle-remembers-son-chris-kyle/'
p328
aS'http://www.foxnews.com/transcript/2013/11/06/is-president-obama-toxic-for-democratic-party/'
p329
aS'http://www.foxnews.com/transcript/2014/07/31/hannity-reacts-russell-brands-rant-and-hollywoods-troubling-take-hamas/'
p330
aS'http://www.foxnews.com/transcript/2016/02/10/will-trump-sanders-build-on-nh-victories-or-be-slowed-down-by-rivals/'
p331
aS'http://www.foxnews.com/transcript/2015/06/26/carly-fiorina-explains-why-not-afraid-to-take-on-hillary-clinton-on-hannity/'
p332
aS'http://www.foxnews.com/transcript/2015/12/04/dr-gorka-comments-by-farook-family-attorneys-stunning-gingrich-obama-represents/'
p333
aS'http://www.foxnews.com/transcript/2016/04/20/cruz-confronted-over-fairness-delegate-selection-process/'
p334
aS'http://www.foxnews.com/transcript/2014/04/17/cliven-bundy-blasts-harry-reid-for-standoff-accusations/'
p335
aS'http://www.foxnews.com/transcript/2014/06/26/timeline-deceit-irs/'
p336
aS'http://www.foxnews.com/transcript/2015/03/30/what-really-happens-during-spring-break-2015/'
p337
aS'http://www.foxnews.com/transcript/2013/10/29/rand-paul-on-sebelius-extraordinary-level-incompetence/'
p338
aS'http://www.foxnews.com/transcript/2016/05/11/newt-gingrich-endorses-trump-london-new-muslim-mayor-doubles-down-on-trump/'
p339
aS'http://www.foxnews.com/transcript/2014/03/18/malaysia-airlines-jet-held-by-terrorists-in-pakistan/'
p340
aS'http://www.foxnews.com/transcript/2015/11/23/rubio-are-at-war-with-radical-jihadists-fiorina-hillary-is-dangerous-for/'
p341
aS'http://www.foxnews.com/transcript/2013/11/18/exclusive-gov-scott-walker-strategy-for-republican-party/'
p342
aS'http://www.foxnews.com/transcript/2014/12/23/giuliani-mayor-bill-de-blasio-defamed-nypd/'
p343
aS'http://www.foxnews.com/transcript/2015/06/10/texas-pool-party-attendee-dad-and-lawyer-sound-off-on-officer-actions/'
p344
aS'http://www.foxnews.com/transcript/2015/01/14/karl-rove-analyzes-potential-gop-field-2016/'
p345
aS'http://www.foxnews.com/transcript/2016/02/16/gingrich-americans-migrating-away-from-dealmaking-center-supreme-court/'
p346
aS'http://www.foxnews.com/transcript/2016/04/11/gov-john-kasich-spirit-our-country-rests-in-us/'
p347
aS'http://www.foxnews.com/transcript/2015/04/30/rep-cummings-on-ground-in-baltimore-enforcing-curfew/'
p348
aS'http://www.foxnews.com/transcript/2016/05/02/trump-it-just-all-ends-with-indiana-clinton-reservation-remark-was-derogatory/'
p349
aS'http://www.foxnews.com/transcript/2014/01/24/is-culture-teens-gone-wild-to-be-expected/'
p350
aS'http://www.foxnews.com/transcript/2016/06/08/trump-hillary-temperament-is-disaster-trump-jr-gop-lack-backbone-forced-my/'
p351
aS'http://www.foxnews.com/transcript/2014/10/08/frank-luntz-counts-down-election-day-2014/'
p352
aS'http://www.foxnews.com/transcript/2013/07/01/who-will-replace-morsi-if-resigns/'
p353
aS'http://www.foxnews.com/transcript/2014/07/28/how-would-president-rand-paul-handle-current-world-issues/'
p354
aS'http://www.foxnews.com/transcript/2014/07/11/border-patrol-agent-details-immigration-crisis/'
p355
aS'http://www.foxnews.com/transcript/2014/02/05/exclusive-julie-hayden-on-her-phone-call-with-hostage-taker/'
p356
aS'http://www.foxnews.com/transcript/2013/07/04/dennis-michael-lynch-talks-come-to-america-ii/'
p357
aS'http://www.foxnews.com/transcript/2016/04/25/trump-rips-cruz-kasich-alliance-as-collusion-cruz-reacts-to-delegate-battle/'
p358
aS'http://www.foxnews.com/transcript/2015/11/12/fiorina-talks-clinton-immigration-college-campus-unrest/'
p359
aS'http://www.foxnews.com/transcript/2013/08/13/cable-exclusive-sydney-leathers-talks-anthony-weiner-scandal-on-hannity/'
p360
aS'http://www.foxnews.com/transcript/2013/08/20/what-waste-most-outrageous-examples-government-spending/'
p361
aS'http://www.foxnews.com/transcript/2013/08/27/have-race-relations-improved-since-martin-luther-king-jr-historic-speech/'
p362
aS'http://www.foxnews.com/transcript/2013/07/18/reps-king-rush-debate-zimmerman-verdict/'
p363
aS'http://www.foxnews.com/transcript/2014/02/04/man-loses-7-million-on-super-bowl/'
p364
aS'http://www.foxnews.com/transcript/2015/11/03/trump-america-has-to-be-less-predictable-obama-unbelievable-divider/'
p365
aS'http://www.foxnews.com/transcript/2016/04/12/giuliani-perry-debate-gop-delegate-game-trump-new-convention-manager-speaks-out/'
p366
aS'http://www.foxnews.com/transcript/2014/05/02/benghazi-victim-father-fires-back-at-administration/'
p367
aS'http://www.foxnews.com/transcript/2015/10/14/jeb-bush-dem-candidates-battling-to-go-further-left-why-cant-say-all-lives/'
p368
aS'http://www.foxnews.com/transcript/2015/12/23/huckabee-talks-us-anti-terror-response-rand-paul-says-rubio-should-resign-or/'
p369
aS'http://www.foxnews.com/transcript/2015/10/05/dr-ben-carson-reacts-to-surging-ahead-trump-in-new-poll/'
p370
aS'http://www.foxnews.com/transcript/2013/11/21/blind-man-kicked-off-flight-with-service-dog-speaks-out/'
p371
aS'http://www.foxnews.com/transcript/2014/03/26/is-obama-tough-enough-on-russia/'
p372
aS'http://www.foxnews.com/transcript/2014/08/13/dr-cornel-west-hannity-debate-shooting-unarmed-teen-st-louis/'
p373
aS'http://www.foxnews.com/transcript/2015/04/23/exclusive-saudi-arabian-activist-on-real-war-on-women/'
p374
aS'http://www.foxnews.com/transcript/2016/03/31/gingrich-leading-gop-candidates-need-to-get-back-on-message/'
p375
aS'http://www.foxnews.com/transcript/2013/12/26/look-back-at-top-5-news-stories-2013/'
p376
aS'http://www.foxnews.com/transcript/2015/12/01/cruz-focuses-on-positive-conservative-message-gingrich-says-political/'
p377
aS'http://www.foxnews.com/transcript/2016/02/17/polls-show-trump-nomination-increasingly-likely-clinton-accuses-gop-coded/'
p378
aS'http://www.foxnews.com/transcript/2015/03/31/is-administration-giving-iran-nuclear-bomb/'
p379
aS'http://www.foxnews.com/transcript/2015/03/18/carly-fiorina-slams-hillary-clintons-hypocrisy/'
p380
aS'http://www.foxnews.com/transcript/2014/01/20/giuliani-clinton-was-asleep-at-switch-on-benghazi/'
p381
aS'http://www.foxnews.com/transcript/2014/04/15/america-unbalanced-tax-code-where-your-money-going/'
p382
aS'http://www.foxnews.com/transcript/2015/12/15/hannity-special-terror-in-america/'
p383
aS'http://www.foxnews.com/transcript/2015/04/02/new-questions-about-hillary-association-with-cheryl-mills/'
p384
aS'http://www.foxnews.com/transcript/2015/03/09/obama-vs-netanyahu-why-future-israel-stake/'
p385
aS'http://www.foxnews.com/transcript/2015/04/16/rep-hank-johnson-sounds-off-on-race-relations-in-america/'
p386
aS'http://www.foxnews.com/transcript/2016/02/10/can-donald-trump-keep-momentum-going-kasich-rubio-carson-look-ahead-to-south/'
p387
aS'http://www.foxnews.com/transcript/2015/12/28/are-trump-attacks-on-hillary-bill-justifiable-how-big-victory-is-ramadi/'
p388
aS'http://www.foxnews.com/transcript/2014/10/15/exclusive-why-army-delaying-release-bergdahl-probe/'
p389
aS'http://www.foxnews.com/transcript/2015/04/13/will-civil-rights-leaders-get-behind-hillary-clinton-candidacy/'
p390
aS'http://www.foxnews.com/transcript/2013/11/12/ditka-on-dolphins-bullying-controversy-ive-never-seen-anything-like-this-in/'
p391
aS'http://www.foxnews.com/transcript/2016/04/27/will-cruz-hail-carly-pass-work/'
p392
aS'http://www.foxnews.com/transcript/2016/05/03/carson-jindal-goolsbee-and-huckabee-react-to-trump-big-indiana-win/'
p393
aS'http://www.foxnews.com/transcript/2015/03/24/exclusive-ted-cruz-announcing-candidacy-president/'
p394
aS'http://www.foxnews.com/transcript/2014/05/23/sarah-palin-exposes-lefts-double-standard-women/'
p395
aS'http://www.foxnews.com/transcript/2014/07/02/obama-abusing-his-power-over-immigration-reform/'
p396
aS'http://www.foxnews.com/transcript/2013/11/25/did-united-states-make-bad-deal-with-iran/'
p397
aS'http://www.foxnews.com/transcript/2014/04/22/stoned-america-shattering-myth-that-pot-is-safe/'
p398
aS'http://www.foxnews.com/transcript/2014/05/21/dr-ben-carson-ill-run-president-2016-if/'
p399
aS'http://www.foxnews.com/transcript/2016/01/31/will-big-crowds-in-iowa-transfer-into-votes/'
p400
aS'http://www.foxnews.com/transcript/2015/02/10/sen-mccain-obama-placing-nation-grave-danger/'
p401
aS'http://www.foxnews.com/transcript/2014/02/28/obama-effect-america-at-tipping-point/'
p402
aS'http://www.foxnews.com/transcript/2014/07/21/sean-hannity-urges-obama-stand-and-lead/'
p403
aS'http://www.foxnews.com/transcript/2015/08/31/content-clinton-emails-revealed-dick-and-liz-cheney-open-up-about-new-book/'
p404
aS'http://www.foxnews.com/transcript/2015/01/23/how-should-nfl-rule-deflate-gate/'
p405
aS'http://www.foxnews.com/transcript/2015/03/12/why-hillary-clinton-email-controversy-wont-go-away/'
p406
aS'http://www.foxnews.com/transcript/2013/11/01/real-people-share-health-coverage-horror-stories/'
p407
aS'http://www.foxnews.com/transcript/2013/12/05/rnc-chair-obamacare-was-intentionally-designed-to-screw-over-young-people/'
p408
aS'http://www.foxnews.com/transcript/2013/07/26/are-disgraced-politicians-new-norm-in-american-politics/'
p409
aS'http://www.foxnews.com/transcript/2015/05/22/rand-paul-defends-his-filibuster-against-patriot-act/'
p410
aS'http://www.foxnews.com/transcript/2015/06/03/giuliani-on-why-america-is-not-respected-on-world-stage/'
p411
aS'http://www.foxnews.com/transcript/2015/05/12/ann-coulter-reacts-to-michelle-obama-taking-on-race-in-graduation-speech/'
p412
aS'http://www.foxnews.com/transcript/2014/10/09/why-did-president-obama-mislead-america-about-benghazi/'
p413
aS'http://www.foxnews.com/transcript/2014/08/07/mother-teen-murdered-hamas-speaks-out/'
p414
aS'http://www.foxnews.com/transcript/2015/02/18/donald-trump-and-geraldo-rivera-recap-celebrity-apprentice/'
p415
aS'http://www.foxnews.com/transcript/2014/10/14/exclusive-greg-abbott-responds-wendy-davis-attack-ad/'
p416
aS'http://www.foxnews.com/transcript/2014/03/07/rick-santorum-take-on-possible-2016-contenders/'
p417
aS'http://www.foxnews.com/transcript/2013/09/18/are-republicans-closer-to-defunding-obamacare/'
p418
aS'http://www.foxnews.com/transcript/2016/04/07/empire-state-primary-brings-new-york-values-into-question/'
p419
aS'http://www.foxnews.com/transcript/2015/06/22/should-dylann-roof-get-death-penalty/'
p420
aS'http://www.foxnews.com/transcript/2015/02/26/jindal-issa-defend-giulianis-obama-criticism/'
p421
aS'http://www.foxnews.com/transcript/2016/01/08/gun-rights-advocates-speak-out-after-confronting-obama-geraldo-rivera-no/'
p422
aS'http://www.foxnews.com/transcript/2013/06/12/did-nsa-chief-reveal-enough-during-cybersecurity-hearing/'
p423
aS'http://www.foxnews.com/transcript/2014/04/02/too-early-to-rule-out-terrorism-in-fort-hood-attack/'
p424
aS'http://www.foxnews.com/transcript/2016/02/11/trump-talks-policy-and-which-voting-demographics-can-win-on-hannity/'
p425
aS'http://www.foxnews.com/transcript/2016/04/13/trump-explains-why-feels-primary-process-is-unfair/'
p426
aS'http://www.foxnews.com/transcript/2014/09/17/exclusive-president-obamas-half-brother-tells-all/'
p427
aS'http://www.foxnews.com/transcript/2014/05/30/exclusive-one-one-duck-dynastys-phil-robertson/'
p428
aS'http://www.foxnews.com/transcript/2014/02/20/is-seinfeld-right-about-evolution-parenting/'
p429
aS'http://www.foxnews.com/transcript/2014/08/29/rep-paul-ryans-vision-americas-future/'
p430
aS'http://www.foxnews.com/transcript/2015/02/12/exclusive-navy-seal-who-served-chris-kyle-speaks-out/'
p431
aS'http://www.foxnews.com/transcript/2014/09/29/krauthammer-how-obama-downplaying-radical-islam/'
p432
aS'http://www.foxnews.com/transcript/2013/06/20/did-president-obama-link-catholic-schools-to-segregation/'
p433
aS'http://www.foxnews.com/transcript/2013/07/17/alternate-juror-supports-zimmerman-verdict/'
p434
aS'http://www.foxnews.com/transcript/2014/04/03/sarah-palin-slams-paul-ryan-budget/'
p435
aS'http://www.foxnews.com/transcript/2013/11/26/iran-nuclear-deal-shows-america-weakness-on-world-stage/'
p436
aS'http://www.foxnews.com/transcript/2013/10/01/why-is-big-business-still-exempt-from-obamacare/'
p437
aS'http://www.foxnews.com/transcript/2014/08/28/exclusive-hannity-one-one-imam-anjem-choudary-rise-radical-islam/'
p438
aS'http://www.foxnews.com/transcript/2015/07/28/donald-trump-on-why-his-message-resonates-with-voters/'
p439
aS'http://www.foxnews.com/transcript/2014/09/26/exclusive-rep-smith-debates-benghazi-annex-security-team/'
p440
aS'http://www.foxnews.com/transcript/2013/12/06/how-will-all-uninsured-americans-be-covered-by-january-1/'
p441
aS'http://www.foxnews.com/transcript/2015/05/19/peter-schweizer-reveals-george-stephanopoulos-deep-ties-to-clintons/'
p442
aS'http://www.foxnews.com/transcript/2015/02/24/rnc-calls-hillary-clinton-disclose-foreign-donors/'
p443
aS'http://www.foxnews.com/transcript/2015/07/09/trump-sets-record-straight-on-convo-with-rnc-chair/'
p444
aS'http://www.foxnews.com/transcript/2016/02/29/trump-fires-back-at-critics-as-super-tuesday-nears-cruz-urges-unity-to-beat/'
p445
aS'http://www.foxnews.com/transcript/2014/10/29/glenn-beck-why-america-should-return-common-sense/'
p446
aS'http://www.foxnews.com/transcript/2014/01/30/exclusive-reince-priebus-stands-up-to-msnbc-offensive-tweet/'
p447
aS'http://www.foxnews.com/transcript/2013/12/18/sen-ted-cruz-discusses-lousy-budget-deal/'
p448
aS'http://www.foxnews.com/transcript/2016/02/02/trump-ground-game-skipping-debate-cost-me-in-iowa-cruz-apologizes-to-carson-for/'
p449
aS'http://www.foxnews.com/transcript/2015/07/08/rick-perry-slams-donald-trump-disrespectful-language-on-hannity/'
p450
aS'http://www.foxnews.com/transcript/2015/09/09/trump-cruz-launch-assault-on-iran-nuclear-deal-on-hannity/'
p451
aS'http://www.foxnews.com/transcript/2015/09/23/sharia-law-versus-constitution-gov-kasich-responds-to-critics-on-hannity/'
p452
aS'http://www.foxnews.com/transcript/2014/03/21/embarrassing-week-for-president-obama-on-global-stage/'
p453
aS'http://www.foxnews.com/transcript/2016/06/13/newt-gingrich-slams-left-failure-to-see-reality-terror/'
p454
aS'http://www.foxnews.com/transcript/2015/11/11/ted-cruz-anti-amnesty-candidate-can-win-general-election/'
p455
aS'http://www.foxnews.com/transcript/2013/11/20/sen-ted-cruz-discusses-trade-off-behind-obamacare/'
p456
aS'http://www.foxnews.com/transcript/2016/07/08/hannity-left-sowed-seeds-racial-divide/'
p457
aS'http://www.foxnews.com/transcript/2015/04/22/mitt-romney-sees-trust-gap-between-hillary-clinton-and-americans/'
p458
aS'http://www.foxnews.com/transcript/2015/04/08/exclusive-one-on-one-with-presidential-candidate-rand-paul/'
p459
aS'http://www.foxnews.com/transcript/2015/07/14/exclusive-dick-cheney-warns-against-iran-nuke-deal-on-hannity/'
p460
aS'http://www.foxnews.com/transcript/2014/12/11/univisions-jorge-ramos-tackles-obamas-immigration-contradictions/'
p461
aS'http://www.foxnews.com/transcript/2013/06/10/sen-rand-paul-calls-nsa-spying-utter-frank-hypocrisy/'
p462
aS'http://www.foxnews.com/transcript/2015/03/26/should-university-oklahoma-student-be-forgiven/'
p463
aS'http://www.foxnews.com/transcript/2014/02/26/is-rand-paul-republican-front-runner-in-2016/'
p464
aS'http://www.foxnews.com/transcript/2014/07/18/exclusive-sen-mccain-calls-obama-awol-downed-airliner-and-ukraine-russia/'
p465
aS'http://www.foxnews.com/transcript/2015/03/27/was-germanwings-crash-mass-murder-with-passenger-jet/'
p466
aS'http://www.foxnews.com/transcript/2015/07/08/parents-children-killed-by-illegal-immigrants-sound-off-gov-fallin-wont-remove/'
p467
aS'http://www.foxnews.com/transcript/2013/08/14/does-issa-have-proof-that-lerner-has-agenda-against-conservatives/'
p468
aS'http://www.foxnews.com/transcript/2015/01/30/pentagon-we-dont-want-rush-judgment-bergdahl-case/'
p469
aS'http://www.foxnews.com/transcript/2016/06/22/eric-trump-need-to-put-america-first-sen-sessions-have-responsibility-to/'
p470
aS'http://www.foxnews.com/transcript/2013/11/19/more-evidence-pattern-lies-coming-from-white-house/'
p471
aS'http://www.foxnews.com/transcript/2013/07/10/are-trayvon-martin-parents-satisfied-with-prosecution/'
p472
aS'http://www.foxnews.com/transcript/2014/03/06/sen-rand-paul-previews-his-cpac-2014-speech/'
p473
aS'http://www.foxnews.com/transcript/2014/01/10/nyc-mayor-bill-de-blasio-taking-reins/'
p474
aS'http://www.foxnews.com/transcript/2015/01/07/reps-gohmert-yoho-gop-agenda-congress/'
p475
aS'http://www.foxnews.com/transcript/2015/06/23/should-president-obama-have-used-n-word/'
p476
aS'http://www.foxnews.com/transcript/2015/07/21/exclusive-john-kasich-on-why-should-be-next-president/'
p477
aS'http://www.foxnews.com/transcript/2015/01/09/mark-steyn-says-media-maneuvered-islam-victim-seat/'
p478
aS'http://www.foxnews.com/transcript/2014/01/06/sean-hannity-conservative-solutions-for-america/'
p479
aS'http://www.foxnews.com/transcript/2013/10/14/exclusive-ann-coulter-unveils-brand-new-book-debates-state-republican-party/'
p480
aS'http://www.foxnews.com/transcript/2016/01/22/democratic-strategist-dems-underestimate-ted-cruz-carson-leaders-must-have-both/'
p481
aS'http://www.foxnews.com/transcript/2014/12/24/bernard-kerik-says-de-blasio-has-lost-respect-nypd/'
p482
aS'http://www.foxnews.com/transcript/2014/02/27/exclusive-former-greenpeace-founder-reality-check-for-liberals/'
p483
aS'http://www.foxnews.com/transcript/2014/10/23/exclusive-cornel-west-reacts-michael-brown-case-controversial-political-ads/'
p484
aS'http://www.foxnews.com/transcript/2014/03/11/why-malaysia-airlines-tragedy-matters/'
p485
aS'http://www.foxnews.com/transcript/2014/08/20/ferguson-business-owners-detail-chaos/'
p486
aS'http://www.foxnews.com/transcript/2016/05/09/rick-perry-ben-carson-explain-why-came-around-to-trump/'
p487
aS'http://www.foxnews.com/transcript/2014/11/21/reps-gohmert-bachmann-obamas-unilateral-plan/'
p488
aS'http://www.foxnews.com/transcript/2014/01/07/exclusive-rudy-giuliani-reacts-to-bill-de-blasio-retrogressive-agenda/'
p489
aS'http://www.foxnews.com/transcript/2016/06/17/col-ralph-peters-need-to-crack-down-on-hate-mosques-dr-zudhi-jasser-islam-needs/'
p490
aS'http://www.foxnews.com/transcript/2015/01/29/exclusive-rick-perry-judges-refusal-dismiss-felony-indictment/'
p491
aS'http://www.foxnews.com/transcript/2015/08/10/carson-kasich-hope-to-build-on-gop-debate-momentum-on-hannity/'
p492
aS'http://www.foxnews.com/transcript/2013/08/30/ricky-skaggs-looks-back-on-legendary-music-career/'
p493
aS'http://www.foxnews.com/transcript/2014/01/15/marco-rubio-on-benghazi-there-was-no-plan-in-place/'
p494
aS'http://www.foxnews.com/transcript/2014/01/14/cable-exclusive-robert-gates-explains-why-critical-obama-on-hannity/'
p495
aS'http://www.foxnews.com/transcript/2015/12/08/rubio-proposed-muslim-ban-violates-constitution-carson-slams-false-narrative/'
p496
aS'http://www.foxnews.com/transcript/2016/06/21/dissecting-clinton-attacks-against-trump-refugee-security-concerns-around-world/'
p497
aS'http://www.foxnews.com/transcript/2014/04/29/ann-coulter-sounds-off-on-donald-sterling-scandal/'
p498
aS'http://www.foxnews.com/transcript/2016/05/18/trump-explains-his-supreme-court-picks-calls-nyt-article-not-that-bad-compared/'
p499
aS'http://www.foxnews.com/transcript/2015/09/08/attorney-for-kim-davis-speaks-out-huckabee-blasts-judicial-overreach-in-case/'
p500
aS'http://www.foxnews.com/transcript/2014/09/15/will-president-obamas-isis-strategy-work/'
p501
aS'http://www.foxnews.com/transcript/2016/02/02/winners-and-losers-from-iowa-caucuses/'
p502
aS'http://www.foxnews.com/transcript/2016/01/13/hannity-here-real-state-union/'
p503
aS'http://www.foxnews.com/transcript/2013/12/03/how-president-obama-is-defying-constitution/'
p504
aS'http://www.foxnews.com/transcript/2013/07/30/return-obamacare-death-panels/'
p505
aS'http://www.foxnews.com/transcript/2013/12/16/media-unfairly-covering-mass-murders/'
p506
aS'http://www.foxnews.com/transcript/2015/05/29/mark-levin-slams-michelle-obama-despicable-commencement-message/'
p507
aS'http://www.foxnews.com/transcript/2015/01/26/american-sniper-patriotism-under-attack/'
p508
aS'http://www.foxnews.com/transcript/2013/12/19/palin-sounds-off-on-duck-dynasty-ae-really-screwed-up/'
p509
aS'http://www.foxnews.com/transcript/2015/09/17/inside-gop-debate-strategies-on-hannity/'
p510
aS'http://www.foxnews.com/transcript/2016/07/06/house-republicans-demand-answers-on-clinton-investigation-gorka-obama-lives-in/'
p511
aS'http://www.foxnews.com/transcript/2016/05/24/will-hillary-be-able-to-corral-bernie-supporters-carson-on-why-gop-should-unify/'
p512
aS'http://www.foxnews.com/transcript/2015/08/04/how-will-trump-opponents-handle-him-at-first-debate/'
p513
aS'http://www.foxnews.com/transcript/2016/01/21/trump-outlines-presidential-agenda-kasich-on-being-voice-for-underdog-bush/'
p514
aS'http://www.foxnews.com/transcript/2016/05/19/authorities-intensify-search-for-debris-from-egyptair-crash/'
p515
aS'http://www.foxnews.com/transcript/2016/06/29/hannity-left-incompetence-made-world-less-safe-gorka-isis-attacking-wherever/'
p516
aS'http://www.foxnews.com/transcript/2015/07/23/donald-trump-tackles-immigration-problem-at-border/'
p517
aS'http://www.foxnews.com/transcript/2014/04/24/sean-hannity-our-government-is-simply-out-control/'
p518
aS'http://www.foxnews.com/transcript/2014/03/10/exclusive-rand-paul-responds-to-ted-cruz-criticism/'
p519
aS'http://www.foxnews.com/transcript/2014/11/14/exclusive-george-w-bush-growing-bush-family/'
p520
aS'http://www.foxnews.com/transcript/2014/08/18/rev-jesse-jackson-appears-protest-ferguson/'
p521
aS'http://www.foxnews.com/transcript/2016/04/05/priebus-our-nominee-is-going-to-be-someone-who-is-running/'
p522
aS'http://www.foxnews.com/transcript/2016/04/26/gingrich-trump-represents-very-profound-rebellioningraham-this-is-great-moment/'
p523
aS'http://www.foxnews.com/transcript/2016/06/02/ben-carson-reacts-to-obama-trump-bashing-trump-foreign-policy-adviser-responds/'
p524
aS'http://www.foxnews.com/transcript/2016/06/16/gorka-cia-director-no-longer-spreading-obama-narrative/'
p525
aS'http://www.foxnews.com/transcript/2016/07/01/attorney-ag-lynch-sabotaged-clinton-investigation-huckabee-hillary-going-to/'
p526
aS'http://www.foxnews.com/transcript/2014/02/17/naacp-stays-silent-on-attacks-against-black-conservatives/'
p527
aS'http://www.foxnews.com/transcript/2015/08/19/ted-cruz-says-hillary-clinton-faces-legal-jeopardy/'
p528
aS'http://www.foxnews.com/transcript/2016/01/20/ted-cruz-trump-will-continue-cronyism-corporate-welfare-in-dc-marco-rubio-as/'
p529
aS'http://www.foxnews.com/transcript/2014/05/29/exclusive-dick-cheney-says-obama-very-weak-president/'
p530
aS'http://www.foxnews.com/transcript/2013/09/06/what-does-obamacare-mean-to-college-students/'
p531
aS'http://www.foxnews.com/transcript/2014/04/01/sen-rubio-on-continued-issues-plaguing-obamacare/'
p532
aS'http://www.foxnews.com/transcript/2015/11/04/cruz-bush-react-to-impact-debate-performances-on-2016-campaigns/'
p533
aS'http://www.foxnews.com/transcript/2014/06/25/dick-cheney-sounds-obamas-handling-iraq/'
p534
aS'http://www.foxnews.com/transcript/2015/10/07/carson-stands-by-views-after-media-attacks-whistleblower-says-key-terror-intel/'
p535
aS'http://www.foxnews.com/transcript/2015/08/26/mark-levin-slams-jorge-ramos-for-having-agenda-paul-calls-trump-fake/'
p536
aS'http://www.foxnews.com/transcript/2014/09/12/sarah-palin-isis-war-us/'
p537
aS'http://www.foxnews.com/transcript/2014/11/25/brown-family-attorney-judicial-system-failed/'
p538
aS'http://www.foxnews.com/transcript/2013/08/01/how-does-white-house-define-phony/'
p539
aS'http://www.foxnews.com/transcript/2015/01/05/what-2015-will-impact-2016-presidential-election/'
p540
aS'http://www.foxnews.com/transcript/2014/03/31/karl-rove-on-political-ramifications-over-obamacare-fallout/'
p541
aS'http://www.foxnews.com/transcript/2013/09/20/house-republicans-defend-vote-to-defund-obamacare/'
p542
aS'http://www.foxnews.com/transcript/2015/06/19/charleston-community-in-mourning-after-church-shooting/'
p543
aS'http://www.foxnews.com/transcript/2013/09/06/why-reps-gosar-desantis-are-against-syrian-strike-640323043/'
p544
aS'http://www.foxnews.com/transcript/2013/11/08/president-doctor-cousin-blasts-obamacare/'
p545
aS'http://www.foxnews.com/transcript/2013/11/13/sen-rand-paul-clinton-approach-to-benghazi-was-inexcusable/'
p546
aS'http://www.foxnews.com/transcript/2013/10/22/sen-paul-pushes-constitutional-amendment-that-makes-laws-like-obamacare-apply/'
p547
aS'http://www.foxnews.com/transcript/2015/05/14/carly-fiorina-blasts-hillary-clinton-for-hiding-from-press/'
p548
aS'http://www.foxnews.com/transcript/2013/10/30/why-people-are-losing-their-health-plans-under-obamacare/'
p549
aS'http://www.foxnews.com/transcript/2015/11/20/gov-john-kasich-plan-for-destroying-isis-does-us-have-intel-resources-to/'
p550
aS'http://www.foxnews.com/transcript/2014/07/23/mark-levin-slams-jon-stewarts-putrid-criticism-israel/'
p551
aS'http://www.foxnews.com/transcript/2015/10/09/newt-gingrich-weighs-in-on-house-leadership-elections-obama-recent-foreign/'
p552
aS'http://www.foxnews.com/transcript/2014/05/28/ann-coulter-sounds-white-house-losing-control-scandals/'
p553
aS'http://www.foxnews.com/transcript/2014/02/11/what-does-gov-rick-perry-really-think-christie/'
p554
aS'http://www.foxnews.com/transcript/2013/07/15/zimmerman-defense-team-breaks-down-trial-verdict/'
p555
aS'http://www.foxnews.com/transcript/2014/02/25/why-mike-dickinson-wants-fcc-to-regulate-fox-news/'
p556
aS'http://www.foxnews.com/transcript/2016/05/14/hannity-trump-versus-left/'
p557
aS'http://www.foxnews.com/transcript/2014/11/26/brown-family-attorney-denounces-grand-jurys-decision/'
p558
aS'http://www.foxnews.com/transcript/2015/02/20/rep-mccaul-bringing-syrian-refugees-america-dangerous-and-reckless/'
p559
aS'http://www.foxnews.com/transcript/2015/05/06/american-sniper-widow-reflects-on-life-with-chris-kyle-in-new-book/'
p560
aS'http://www.foxnews.com/transcript/2015/02/03/rand-paul-calls-obamas-budget-wrong-recipe-america/'
p561
aS'http://www.foxnews.com/transcript/2014/01/22/challenges-facing-nfl-outdoor-super-bowl/'
p562
aS'http://www.foxnews.com/transcript/2015/12/07/falwell-urging-students-to-arm-themselves-widow-california-shooting-victim/'
p563
aS'http://www.foxnews.com/transcript/2014/03/14/who-are-pilots-malaysia-airlines-plane/'
p564
aS'http://www.foxnews.com/transcript/2015/07/07/what-does-sanctuary-city-entail-plus-ann-coulter-sounds-off-about-illegal/'
p565
aS'http://www.foxnews.com/transcript/2013/07/22/alternate-juror-e54-opens-up-about-zimmerman-acquittal/'
p566
aS'http://www.foxnews.com/transcript/2014/03/19/rudy-giuliani-take-on-search-for-missing-flight-370/'
p567
aS'http://www.foxnews.com/transcript/2015/01/19/chris-kyles-widow-reflects-navy-seals-legacy/'
p568
aS'http://www.foxnews.com/transcript/2015/07/31/what-is-driving-up-donald-trump-numbers/'
p569
aS'http://www.foxnews.com/transcript/2016/05/13/trump-paul-ryan-doing-good-job-uniting-gop-amazon-ceo-using-washington-post-for/'
p570
aS'http://www.foxnews.com/transcript/2014/06/17/sheriff-joe-arpaio-whats-behind-border-surge/'
p571
aS'http://www.foxnews.com/transcript/2014/06/19/pelletier-family-reacts-justinas-long-journey-home/'
p572
aS'http://www.foxnews.com/transcript/2014/12/08/what-does-future-hold-ferguson/'
p573
aS'http://www.foxnews.com/transcript/2016/01/14/how-radical-islam-has-recently-impacted-america/'
p574
aS'http://www.foxnews.com/transcript/2016/06/15/gorka-obama-clinton-policies-emboldened-us-enemies-trump-sons-go-after-clinton/'
p575
aS'http://www.foxnews.com/transcript/2015/10/02/trump-talks-foreign-policy-tax-plan-looking-for-answers-after-oregon-campus/'
p576
aS'http://www.foxnews.com/transcript/2014/03/24/gov-rick-perry-keeping-option-open-for-2016/'
p577
aS'http://www.foxnews.com/transcript/2014/09/10/col-peters-expects-forceful-isis-speech-obama/'
p578
aS'http://www.foxnews.com/transcript/2015/07/20/rick-perry-blasts-donald-trump-offensive-mccain-remark/'
p579
aS'http://www.foxnews.com/transcript/2014/10/16/exclusive-houston-subpoenas-pastors-turn-over-sermons/'
p580
aS'http://www.foxnews.com/transcript/2015/07/27/what-donald-trump-entrance-into-2016-race-means-for-gop/'
p581
aS'http://www.foxnews.com/transcript/2016/01/05/trump-hillary-and-obama-gave-us-isis-speaker-ryan-offering-bold-agenda-to/'
p582
aS'http://www.foxnews.com/transcript/2015/01/06/sarah-palin-slams-peta-amid-dog-controversy/'
p583
aS'http://www.foxnews.com/transcript/2013/08/06/sean-hannity-responds-to-ryan-adams-twitter-tirade/'
p584
aS'http://www.foxnews.com/transcript/2015/12/14/rubio-lays-out-his-immigration-plan-amid-terror-fears-rev-graham-our-nation-is/'
p585
aS'http://www.foxnews.com/transcript/2015/06/16/hillary-clinton-takes-more-heat-for-press-access-foundation-funds/'
p586
aS'http://www.foxnews.com/transcript/2013/06/27/zimmerman-trial-prosecution-star-witness-mistake/'
p587
aS'http://www.foxnews.com/transcript/2015/11/18/ryan-obama-actions-remarkably-unpresidential-governors-states-have-authority-to/'
p588
aS'http://www.foxnews.com/transcript/2014/02/19/university-removes-bibles-from-hotel-after-freedom-from-religion-foundation/'
p589
aS'http://www.foxnews.com/transcript/2015/06/30/ted-cruz-blasts-supreme-court-damaging-decisions/'
p590
aS'http://www.foxnews.com/transcript/2013/12/20/duck-dynasty-debate-who-really-intolerant/'
p591
aS'http://www.foxnews.com/transcript/2014/11/19/rep-jim-jordan-why-jonathan-gruber-should-face-congress/'
p592
aS'http://www.foxnews.com/transcript/2015/11/09/donald-trump-talks-hosting-snl-immigration-battle-rubio-calls-personal-finance/'
p593
aS'http://www.foxnews.com/transcript/2014/07/29/obama-considering-bypassing-congress-grant-amnesty-illegal-immigrants/'
p594
aS'http://www.foxnews.com/transcript/2014/04/28/rick-santorum-talks-new-book-blue-collar-conservatives/'
p595
aS'http://www.foxnews.com/transcript/2013/06/11/aclu-slams-obama-administration-with-lawsuit/'
p596
aS'http://www.foxnews.com/transcript/2015/02/05/sen-mike-lee-isis-theyve-got-be-stopped/'
p597
aS'http://www.foxnews.com/transcript/2014/11/10/gov-scott-walker-urges-gop-get-out-there-and-lead/'
p598
aS'http://www.foxnews.com/transcript/2014/07/08/clinton-changes-tune-about-defending-child-rapist/'
p599
aS'http://www.foxnews.com/transcript/2015/03/19/rep-tom-cotton-describes-guantanamo-bay-tour/'
p600
aS'http://www.foxnews.com/transcript/2015/07/22/ted-cruz-need-to-prosecute-planned-parenthood/'
p601
aS'http://www.foxnews.com/transcript/2015/09/28/congressional-freedom-caucus-reacts-to-boehner-resignation-ann-romney-discusses/'
p602
aS'http://www.foxnews.com/transcript/2013/10/17/obamacare-forcing-companies-to-rethink-hiring-strategy/'
p603
aS'http://www.foxnews.com/transcript/2014/11/17/navy-seal-who-killed-usama-bin-laden-goes-inside-mission-step-step/'
p604
aS'http://www.foxnews.com/transcript/2013/09/19/exclusive-tom-delay-reacts-to-court-overturning-conviction/'
p605
aS'http://www.foxnews.com/transcript/2016/06/14/trump-what-happened-in-orlando-is-disgrace-time-for-obama-to-face-problem/'
p606
aS'http://www.foxnews.com/transcript/2016/03/09/hannity-on-road-donald-trump/'
p607
aS'http://www.foxnews.com/transcript/2015/10/22/rubio-giuliani-sound-off-on-clinton-benghazi-testimony/'
p608
aS'http://www.foxnews.com/transcript/2016/06/23/trump-clinton-done-nothing-well-scotus-decision-great-victory-for-constitution/'
p609
aS'http://www.foxnews.com/transcript/2016/01/29/ted-cruz-father-talks-voting-for-people-principle/'
p610
aS'http://www.foxnews.com/transcript/2013/10/07/sen-paul-washington-playing-games-by-threatening-default/'
p611
aS'http://www.foxnews.com/transcript/2016/03/21/trump-talks-leading-silent-majority-movement-outlines-his-views-on-middle-east/'
p612
aS'http://www.foxnews.com/transcript/2015/09/14/exclusive-rick-perry-explains-dropping-out-2016-race-on-hannity/'
p613
aS'http://www.foxnews.com/transcript/2016/02/08/trump-cruz-bush-drum-up-support-in-new-hampshire-on-hannity/'
p614
aS'http://www.foxnews.com/transcript/2015/07/02/okla-officials-address-ten-commandments-statue-case-county-clerk-quits-job/'
p615
aS'http://www.foxnews.com/transcript/2016/02/26/hannity-on-road-ted-cruz-talks-to-voters-in-tennessee/'
p616
aS'http://www.foxnews.com/transcript/2013/10/24/exclusive-fired-obamacare-operator-speaks-out/'
p617
aS'http://www.foxnews.com/transcript/2014/11/07/sen-mike-lee-blasts-presidents-amnesty-agenda/'
p618
aS'http://www.foxnews.com/transcript/2014/06/05/widow-soldier-who-died-bergdahl-search-says-situation-hurtful/'
p619
aS'http://www.foxnews.com/transcript/2016/01/15/ted-cruz-voters-could-not-care-less-about-my-birthplace/'
p620
aS'http://www.foxnews.com/transcript/2016/02/19/trump-im-most-conservative-on-many-issues-kasich-my-campaign-has-great-crowds/'
p621
aS'http://www.foxnews.com/transcript/2014/10/30/ann-coulter-talks-gutter-politics-midterm-races/'
p622
aS'http://www.foxnews.com/transcript/2015/12/29/are-trump-attacks-against-bill-clinton-smart-play-debate-over-jeb-bush/'
p623
aS'http://www.foxnews.com/transcript/2016/04/14/trump-campaign-manager-speaks-out-after-charges-dropped/'
p624
aS'http://www.foxnews.com/transcript/2015/10/20/trump-respects-jeb-for-defending-his-brother-christie-obama-ruined-credibility/'
p625
aS'http://www.foxnews.com/transcript/2016/05/23/gingrich-says-trump-creates-totally-new-appeal-college-students-agree-to-make/'
p626
aS'http://www.foxnews.com/transcript/2014/07/24/gov-perry-texas-cant-wait-any-longer-washington-secure-border/'
p627
aS'http://www.foxnews.com/transcript/2013/08/29/sen-rand-paul-should-not-engage-in-war-in-syria/'
p628
aS'http://www.foxnews.com/transcript/2014/12/17/karl-rove-jeb-bush-exploring-2016-presidential-run/'
p629
aS'http://www.foxnews.com/transcript/2016/04/06/can-trump-cruz-supporters-unite-to-stop-establishment-pro-life-activist-says/'
p630
aS'http://www.foxnews.com/transcript/2016/04/04/donald-trump-on-what-learned-about-political-system-delegate-battle-gop/'
p631
aS'http://www.foxnews.com/transcript/2014/09/03/former-us-ambassador-iraq-we-need-get-after-isis-now/'
p632
aS'http://www.foxnews.com/transcript/2016/08/05/trump-endorses-paul-ryan-john-mccain-and-kelly-ayotte/'
p633
aS'http://www.foxnews.com/transcript/2015/07/02/should-officials-take-fourth-july-isis-threats-seriously-plus-ann-coulter/'
p634
aS'http://www.foxnews.com/transcript/2014/06/24/ed-kleins-new-book-highlights-dysfunctional-obama-clinton-relationship/'
p635
aS'http://www.foxnews.com/transcript/2013/11/15/evolution-obamacare-error/'
p636
aS'http://www.foxnews.com/transcript/2014/09/22/media-blowing-nfl-controversy-out-proportion/'
p637
aS'http://www.foxnews.com/transcript/2015/01/12/why-west-needs-wake-call-amid-attacks-france/'
p638
aS'http://www.foxnews.com/transcript/2014/02/12/exclusive-rand-paul-says-nsa-spying-has-gone-overboard/'
p639
aS'http://www.foxnews.com/transcript/2014/05/20/panel-breaks-down-super-tuesday-primary-results/'
p640
aS'http://www.foxnews.com/transcript/2015/02/19/ann-coulter-offers-insight-hillary-clintons-latest-woes-washingtons-amnesty/'
p641
aS'http://www.foxnews.com/transcript/2013/07/02/why-did-prosecution-play-zimmerman-interview-with-sean-hannity/'
p642
aS'http://www.foxnews.com/transcript/2013/07/12/legal-experts-in-heated-debate-over-zimmerman-trial/'
p643
aS'http://www.foxnews.com/transcript/2015/06/17/exclusive-jeb-bush-explains-why-is-running-for-president-on-hannity/'
p644
aS'http://www.foxnews.com/transcript/2014/11/03/krauthammer-midterms-are-referendum-president-obama/'
p645
aS'http://www.foxnews.com/transcript/2016/05/25/gingrich-trump-needs-higher-level-discipline/'
p646
aS'http://www.foxnews.com/transcript/2014/01/21/ann-coulter-sounds-off-on-wendy-davis-inconsistencies/'
p647
aS'http://www.foxnews.com/transcript/2014/10/06/crisis-confidence-obamas-mixed-messages-isis/'
p648
aS'http://www.foxnews.com/transcript/2015/02/27/ben-carson-why-he-switched-republican-party/'
p649
aS'http://www.foxnews.com/transcript/2015/10/26/why-jeb-bush-needs-to-start-fighting-competitive-election-rhetorical-war-on/'
p650
aS'http://www.foxnews.com/transcript/2013/07/25/rudy-giuliani-anthony-weiner-is-crying-out-for-help/'
p651
aS'http://www.foxnews.com/transcript/2013/12/30/will-2014-be-marred-with-more-scandals-for-obama/'
p652
aS'http://www.foxnews.com/transcript/2016/02/15/exclusive-jeb-and-george-w-bush-speak-out-about-2016-race/'
p653
aS'http://www.foxnews.com/transcript/2016/04/21/donald-trump-accuses-his-rivals-buying-delegates/'
p654
aS'http://www.foxnews.com/transcript/2016/02/05/final-pitches-before-new-hampshire-primary-from-gop-candidates/'
p655
aS'http://www.foxnews.com/transcript/2015/04/14/exclusive-marco-rubio-on-why-is-running-for-president/'
p656
aS'http://www.foxnews.com/transcript/2016/03/04/cruz-brokered-convention-would-cause-revolt-across-us-john-kasich-offers/'
p657
aS'http://www.foxnews.com/transcript/2014/07/01/benghazi-victims-mother-outraged-over-suspects-trial/'
p658
aS'http://www.foxnews.com/transcript/2015/08/17/glenn-beck-trump-conservative-record-is-horrendous/'
p659
aS'http://www.foxnews.com/transcript/2015/01/15/giuliani-white-house-sending-signal-cowardice-and-weakness-terorrists/'
p660
aS'http://www.foxnews.com/transcript/2013/06/14/department-injustice-breaking-down-holder-lies/'
p661
aS'http://www.foxnews.com/transcript/2013/07/29/sen-rand-paul-fires-back-at-gov-chris-christie/'
p662
aS'http://www.foxnews.com/transcript/2016/05/10/corey-lewandowski-explains-key-to-trump-vp-search-huckabee-reacts-to-primary/'
p663
aS'http://www.foxnews.com/transcript/2014/03/17/why-is-flight-370-investigation-marred-by-misinformation/'
p664
aS'http://www.foxnews.com/transcript/2015/03/03/president-obama-betraying-israel/'
p665
aS'http://www.foxnews.com/transcript/2014/04/16/donald-trump-on-lack-respect-for-america/'
p666
aS'http://www.foxnews.com/transcript/2013/08/07/hollywood-hypocrite-matt-damon-puts-kids-in-private-school/'
p667
aS'http://www.foxnews.com/transcript/2016/01/18/rep-mike-mccaul-rips-iran-prisoner-swap-as-bad-deal/'
p668
aS'http://www.foxnews.com/transcript/2015/09/03/reince-priebus-on-donald-trump-signing-loyalty-pledge/'
p669
aS'http://www.foxnews.com/transcript/2015/11/18/trump-syria-refugees-could-be-ultimate-trojan-horse/'
p670
aS'http://www.foxnews.com/transcript/2015/04/24/liberal-hypocrisy-msnbc-hosts-owe-ton-money-in-back-taxes/'
p671
aS'http://www.foxnews.com/transcript/2015/06/08/did-duggars-properly-handle-josh-confession/'
p672
aS'http://www.foxnews.com/transcript/2013/11/11/sarah-palin-on-chris-christie-winning-over-conservatives/'
p673
aS'http://www.foxnews.com/transcript/2014/07/16/rand-paul-gov-perrys-unfair-foreign-policy-criticism/'
p674
aS'http://www.foxnews.com/transcript/2014/10/13/radical-islam-america-islam-truly-religion-peace/'
p675
aS'http://www.foxnews.com/transcript/2016/01/19/newt-gingrich-says-feud-with-ted-cruz-shrinks-donald-trump/'
p676
aS'http://www.foxnews.com/transcript/2014/02/18/gov-scott-walker-republicans-need-to-offer-real-plan/'
p677
aS'http://www.foxnews.com/transcript/2016/01/11/rubio-hillary-is-everything-dont-need-in-america/'
p678
aS'http://www.foxnews.com/transcript/2013/08/19/is-rod-punishment-fair/'
p679
aS'http://www.foxnews.com/transcript/2016/03/17/gingrich-liberals-will-go-outside-law-to-impose-values-giuliani-gop-must-pick/'
p680
aS'http://www.foxnews.com/transcript/2015/10/19/bush-slams-trump-view-history-as-just-wrong-jindal-calls-republicans-in/'
p681
aS'http://www.foxnews.com/transcript/2014/04/14/cliven-bundy-fires-back-after-ranch-standoff-comes-to-end/'
p682
aS'http://www.foxnews.com/transcript/2014/03/03/did-sarah-palin-predict-ukraine-crisis-back-in-2008/'
p683
aS'http://www.foxnews.com/transcript/2015/10/01/what-do-know-about-oregon-college-shooter/'
p684
aS'http://www.foxnews.com/transcript/2013/12/04/is-obama-really-meeting-with-sebelius-over-health-care/'
p685
aS'http://www.foxnews.com/transcript/2013/10/21/exclusive-dick-cheney-opens-up-about-heart-disease-battle-in-new-book/'
p686
aS'http://www.foxnews.com/transcript/2016/06/06/who-is-judge-in-trump-university-case-ingraham-trump-shouldnt-get-bogged-down/'
p687
aS'http://www.foxnews.com/transcript/2015/06/04/reporter-who-broke-boston-terror-probe-story-speaks-out-on-hannity/'
p688
aS'http://www.foxnews.com/transcript/2013/07/09/rep-eric-cantor-obamacare-needs-permanent-delay/'
p689
aS'http://www.foxnews.com/transcript/2015/08/18/steyn-explains-trump-appeal-to-voters-giuliani-talks-clinton-server-saga/'
p690
a.