(lp0
S'http://www.foxnews.com/transcript/2016/04/11/ted-cruz-on-attack/'
p1
aS'http://www.foxnews.com/transcript/2015/06/08/income-inequality-in-america/'
p2
aS'http://www.foxnews.com/transcript/2016/08/02/criticizing-black-lives-matter/'
p3
aS'http://www.foxnews.com/transcript/2015/05/21/bill-oreilly-will-jihad-defeat-america/'
p4
aS'http://www.foxnews.com/transcript/2016/02/23/bill-oreilly-south-carolina-vote-and-other-stuff/'
p5
aS'http://www.foxnews.com/transcript/2015/08/24/birthright-citizenship-battle/'
p6
aS'http://www.foxnews.com/transcript/2015/08/07/trump-and-bush-strengths-and-weaknesses/'
p7
aS'http://www.foxnews.com/transcript/2014/12/16/bill-oreilly-cia-and-police/'
p8
aS'http://www.foxnews.com/transcript/2015/01/09/bill-oreilly-where-is-us-policy-to-fight-jihad/'
p9
aS'http://www.foxnews.com/transcript/2015/10/05/bill-oreilly-portrait-killer/'
p10
aS'http://www.foxnews.com/transcript/2016/06/03/bill-oreilly-can-hillary-clinton-protect-us-from-villains-overseas/'
p11
aS'http://www.foxnews.com/transcript/2015/01/09/how-to-deal-with-jihad/'
p12
aS'http://www.foxnews.com/transcript/2015/02/12/president-obama-proposal-to-fight-isis/'
p13
aS'http://www.foxnews.com/transcript/2015/10/07/bill-oreilly-free-stuff-for-americans/'
p14
aS'http://www.foxnews.com/transcript/2015/01/14/bill-oreilly-fighting-against-jihad/'
p15
aS'http://www.foxnews.com/transcript/2016/06/28/why-are-americans-turning-against-both-political-parties/'
p16
aS'http://www.foxnews.com/transcript/2016/01/11/bill-oreilly-president-obama-parallel-universe/'
p17
aS'http://www.foxnews.com/transcript/2015/10/02/bill-oreilly-mass-murder-in-oregon/'
p18
aS'http://www.foxnews.com/transcript/2015/01/29/bill-oreilly-is-terrorism-overwhelming-obama-administration/'
p19
aS'http://www.foxnews.com/transcript/2016/02/15/bill-oreilly-more-campaign-madness/'
p20
aS'http://www.foxnews.com/transcript/2015/12/22/did-president-obama-play-race-card-against-donald-trump/'
p21
aS'http://www.foxnews.com/transcript/2015/08/27/bill-oreilly-donald-trump-vs-jorge-ramos/'
p22
aS'http://www.foxnews.com/transcript/2016/05/19/was-jesus-socialist-sanders-supporter/'
p23
aS'http://www.foxnews.com/transcript/2016/06/09/bill-oreilly-thank-god-primaries-are-over/'
p24
aS'http://www.foxnews.com/transcript/2016/01/21/bill-oreilly-building-up-bernie/'
p25
aS'http://www.foxnews.com/transcript/2015/01/23/bill-oreilly-race-and-corruption/'
p26
aS'http://www.foxnews.com/transcript/2015/03/19/cheney-president-obama-worst-president-in-my-lifetime/'
p27
aS'http://www.foxnews.com/transcript/2016/04/07/what-next-after-cruz-sanders-victories-in-wisconsin/'
p28
aS'http://www.foxnews.com/transcript/2014/12/19/top-stories-2014/'
p29
aS'http://www.foxnews.com/transcript/2014/12/18/president-obama-normalizing-relations-with-cuba/'
p30
aS'http://www.foxnews.com/transcript/2015/04/21/bill-oreilly-income-inequality-in-america/'
p31
aS'http://www.foxnews.com/transcript/2016/02/26/is-donald-trump-inevitable-republican-nominee/'
p32
aS'http://www.foxnews.com/transcript/2015/06/22/are-black-americans-in-danger/'
p33
aS'http://www.foxnews.com/transcript/2015/11/19/bill-oreilly-terror-madness-continues/'
p34
aS'http://www.foxnews.com/transcript/2016/07/01/bill-oreilly-finally-some-good-news-for-kate-law/'
p35
aS'http://www.foxnews.com/transcript/2016/01/08/analyzing-election-cycle-coverage/'
p36
aS'http://www.foxnews.com/transcript/2016/06/30/bill-oreilly-cannot-contain-evil/'
p37
aS'http://www.foxnews.com/transcript/2015/01/12/bill-oreilly-terrorism-wins-again/'
p38
aS'http://www.foxnews.com/transcript/2015/12/02/bill-oreilly-left-secret-immigration-plan/'
p39
aS'http://www.foxnews.com/transcript/2015/08/06/ben-carson-debate-strategy/'
p40
aS'http://www.foxnews.com/transcript/2015/11/18/celebrities-and-pundits-react-to-paris-terror-attacks/'
p41
aS'http://www.foxnews.com/transcript/2015/01/15/bill-oreilly-real-reason-obama-administration-will-not-define-islamic-jihad/'
p42
aS'http://www.foxnews.com/transcript/2016/07/27/bill-oreilly-countering-donald-trump/'
p43
aS'http://www.foxnews.com/transcript/2016/04/04/ted-cruz-on-battle-for-wisconsin/'
p44
aS'http://www.foxnews.com/transcript/2014/12/17/is-america-unjust-nation/'
p45
aS'http://www.foxnews.com/transcript/2015/07/13/igniting-immigration-debate/'
p46
aS'http://www.foxnews.com/transcript/2016/03/03/how-would-ted-koppel-cover-donald-trump/'
p47
aS'http://www.foxnews.com/transcript/2015/09/11/donald-trump-attacking-ben-carson-over-faith/'
p48
aS'http://www.foxnews.com/transcript/2015/02/10/bill-oreilly-is-president-obama-most-polarizing-chief-executive-in-american/'
p49
aS'http://www.foxnews.com/transcript/2015/01/19/bill-oreilly-barack-obama-kareem-abdul-jabbar-and-islam/'
p50
aS'http://www.foxnews.com/transcript/2016/08/05/new-battleground-polls-shakeup-presidential-race/'
p51
aS'http://www.foxnews.com/transcript/2015/03/23/bill-oreilly-is-us-foreign-policy-collapsing/'
p52
aS'http://www.foxnews.com/transcript/2015/11/19/democrats-isis-and-refugees/'
p53
aS'http://www.foxnews.com/transcript/2016/02/27/bill-oreilly-tenth-republican-debate/'
p54
aS'http://www.foxnews.com/transcript/2015/03/17/deadline-for-nuclear-negotiations-approaches/'
p55
aS'http://www.foxnews.com/transcript/2015/03/05/bill-oreilly-trust-factor/'
p56
aS'http://www.foxnews.com/transcript/2016/07/07/bill-oreilly-president-obama-and-islam/'
p57
aS'http://www.foxnews.com/transcript/2015/09/21/will-government-shut-down-over-planned-parenthood/'
p58
aS'http://www.foxnews.com/transcript/2016/08/03/bill-oreilly-lesson-for-donald-trump/'
p59
aS'http://www.foxnews.com/transcript/2015/02/18/bill-oreilly-holy-war-begins/'
p60
aS'http://www.foxnews.com/transcript/2015/04/21/how-clintons-made-their-money/'
p61
aS'http://www.foxnews.com/transcript/2015/06/25/bill-oreilly-demonizing-america-as-racist-nation/'
p62
aS'http://www.foxnews.com/transcript/2015/07/23/did-mohammod-youssuf-abdulazeez-turn-to-radical-islam/'
p63
aS'http://www.foxnews.com/transcript/2015/11/17/confronting-isis-following-paris-terror-attacks/'
p64
aS'http://www.foxnews.com/transcript/2015/06/26/supreme-court-hands-down-major-victory-for-obamacare/'
p65
aS'http://www.foxnews.com/transcript/2015/09/10/assessing-republican-presidential-contenders/'
p66
aS'http://www.foxnews.com/transcript/2015/01/12/is-this-it-for-islam/'
p67
aS'http://www.foxnews.com/transcript/2015/09/18/bill-oreilly-what-america-learned-from-second-republican-debate/'
p68
aS'http://www.foxnews.com/transcript/2015/05/07/bill-oreilly-assessing-hillary-clinton-status-in-america/'
p69
aS'http://www.foxnews.com/transcript/2016/05/26/bill-oreilly-how-black-lives-matter-is-killing-americans/'
p70
aS'http://www.foxnews.com/transcript/2015/06/24/how-do-american-muslims-see-jihad/'
p71
aS'http://www.foxnews.com/transcript/2016/07/22/bill-oreilly-some-drama-at-this-convention-and-it-took-place-last-night/'
p72
aS'http://www.foxnews.com/transcript/2016/01/05/bill-oreilly-biggest-political-story-in-america/'
p73
aS'http://www.foxnews.com/transcript/2015/05/11/isis-in-america/'
p74
aS'http://www.foxnews.com/transcript/2016/05/17/bill-oreilly-personal-attacks-and-american-voter/'
p75
aS'http://www.foxnews.com/transcript/2015/07/21/donald-trump-criticizing-john-mccain/'
p76
aS'http://www.foxnews.com/transcript/2015/02/27/how-to-defeat-isis/'
p77
aS'http://www.foxnews.com/transcript/2016/06/02/bill-oreilly-donald-trump-and-media/'
p78
aS'http://www.foxnews.com/transcript/2015/02/10/david-axelrod-enters-no-spin-zone/'
p79
aS'http://www.foxnews.com/transcript/2015/01/27/did-know-that-melissa-francis/'
p80
aS'http://www.foxnews.com/transcript/2015/07/24/donald-trump-heads-to-border/'
p81
aS'http://www.foxnews.com/transcript/2015/07/16/planned-parenthood-under-fire-for-controversial-video/'
p82
aS'http://www.foxnews.com/transcript/2015/08/25/another-bad-day-for-stock-market/'
p83
aS'http://www.foxnews.com/transcript/2015/09/10/bill-oreilly-nation-turns-against-iranian-nuke-deal/'
p84
aS'http://www.foxnews.com/transcript/2016/02/11/bill-oreilly-verbal-warfare-breaking-out-over-south-carolina/'
p85
aS'http://www.foxnews.com/transcript/2016/06/06/mark-cuban-for-vice-president/'
p86
aS'http://www.foxnews.com/transcript/2015/12/16/bill-oreilly-another-republican-debate-coming-up-in-about-60-minutes/'
p87
aS'http://www.foxnews.com/transcript/2016/02/16/battle-for-supreme-court/'
p88
aS'http://www.foxnews.com/transcript/2016/06/15/is-terrorism-expanding-under-president-obama/'
p89
aS'http://www.foxnews.com/transcript/2015/01/30/bill-oreilly-americans-not-happy-with-president-obama-take-on-terrorism/'
p90
aS'http://www.foxnews.com/transcript/2015/05/29/bill-oreilly-decline-american-power-part-2/'
p91
aS'http://www.foxnews.com/transcript/2015/01/07/bill-oreilly-anarchy-in-new-york-city-police-department/'
p92
aS'http://www.foxnews.com/transcript/2016/06/03/state-department-deletes-controversial-portion-video/'
p93
aS'http://www.foxnews.com/transcript/2016/06/01/bill-oreilly-murder-kate-steinle-and-congress/'
p94
aS'http://www.foxnews.com/transcript/2015/08/28/bill-oreilly-killing-innocents/'
p95
aS'http://www.foxnews.com/transcript/2015/02/24/bill-oreilly-giuliani-versus-obama/'
p96
aS'http://www.foxnews.com/transcript/2015/11/24/donald-trump-on-confronting-isis/'
p97
aS'http://www.foxnews.com/transcript/2016/01/06/can-donald-trump-win-republican-nomination/'
p98
aS'http://www.foxnews.com/transcript/2016/06/01/political-chaos-in-california-continues/'
p99
aS'http://www.foxnews.com/transcript/2016/01/29/bill-oreilly-big-republican-debate-and-reaction-to-donald-trump-on-factor/'
p100
aS'http://www.foxnews.com/transcript/2015/09/02/is-there-epidemic-violence-against-police-in-america/'
p101
aS'http://www.foxnews.com/transcript/2015/06/16/race-and-violent-crime-in-america/'
p102
aS'http://www.foxnews.com/transcript/2015/01/15/exposing-islamic-extremists/'
p103
aS'http://www.foxnews.com/transcript/2015/07/22/carly-fiorina-enters-no-spin-zone/'
p104
aS'http://www.foxnews.com/transcript/2016/01/20/christianity-under-siege-in-america-donald-trump-weighs-in/'
p105
aS'http://www.foxnews.com/transcript/2014/12/19/bill-oreilly-why-traditional-america-is-poised-to-come-back/'
p106
aS'http://www.foxnews.com/transcript/2014/12/24/president-remarks-about-racism-in-america/'
p107
aS'http://www.foxnews.com/transcript/2015/02/12/bill-oreilly-why-brian-williams-story-is-important-for-america/'
p108
aS'http://www.foxnews.com/transcript/2016/02/27/analyzing-winners-and-losers-gop-debate-in-houston/'
p109
aS'http://www.foxnews.com/transcript/2016/02/15/future-ben-carson-campaign/'
p110
aS'http://www.foxnews.com/transcript/2016/02/19/pope-francis-criticizing-donald-trump/'
p111
aS'http://www.foxnews.com/transcript/2016/06/23/bill-oreilly-donald-trump-seeking-to-destroy-hillary-clinton/'
p112
aS'http://www.foxnews.com/transcript/2015/01/06/bill-oreilly-progressive-left-and-police/'
p113
aS'http://www.foxnews.com/transcript/2016/03/01/bill-oreilly-state-republican-party/'
p114
aS'http://www.foxnews.com/transcript/2015/02/20/bill-oreilly-more-terrorism-madness/'
p115
aS'http://www.foxnews.com/transcript/2016/05/13/bill-oreilly-real-story-donald-trump-meeting-republican-leaders-today/'
p116
aS'http://www.foxnews.com/transcript/2016/06/14/donald-trump-sounds-off-on-president-obama-and-isis/'
p117
aS'http://www.foxnews.com/transcript/2016/02/25/bill-oreilly-donald-trump-populist-campaign/'
p118
aS'http://www.foxnews.com/transcript/2015/01/13/bill-oreilly-islamic-terrorism-and-obama-administration/'
p119
aS'http://www.foxnews.com/transcript/2015/06/12/bill-oreilly-younger-americans-disrespecting-authority/'
p120
aS'http://www.foxnews.com/transcript/2015/07/23/bill-oreilly-human-life-and-left-in-america/'
p121
aS'http://www.foxnews.com/transcript/2016/02/18/federal-government-vs-apple/'
p122
aS'http://www.foxnews.com/transcript/2015/01/08/bill-oreilly-another-terror-attack-by-muslim-killers/'
p123
aS'http://www.foxnews.com/transcript/2016/08/03/donald-trump-responds-to-president-obama-criticism/'
p124
aS'http://www.foxnews.com/transcript/2015/04/22/christians-thrown-overboard-migrant-ship-left-to-drown/'
p125
aS'http://www.foxnews.com/transcript/2015/09/14/challenging-donald-trump/'
p126
aS'http://www.foxnews.com/transcript/2015/08/18/bill-oreilly-wild-presidential-race/'
p127
aS'http://www.foxnews.com/transcript/2015/09/01/bill-oreilly-how-donald-trump-campaign-is-actually-helping-democratic-party/'
p128
aS'http://www.foxnews.com/transcript/2015/05/28/truth-serum-congress-flying-first-class/'
p129
aS'http://www.foxnews.com/transcript/2015/06/11/truth-serum-how-radical-college-professors-get-hired/'
p130
aS'http://www.foxnews.com/transcript/2015/03/03/bill-oreilly-danger-overseas-getting-closer/'
p131
aS'http://www.foxnews.com/transcript/2015/01/27/bill-oreilly-is-president-obama-being-humiliated-by-speaker-house-john-boehner/'
p132
aS'http://www.foxnews.com/transcript/2015/12/18/mistrial-declared-for-officer-charged-in-freddie-gray-death/'
p133
aS'http://www.foxnews.com/transcript/2015/08/21/bill-oreilly-trumpians-versus-democrats/'
p134
aS'http://www.foxnews.com/transcript/2015/09/03/bill-oreilly-iranian-nuke-deal-will-become-reality/'
p135
aS'http://www.foxnews.com/transcript/2015/08/11/rand-paul-scorching-donald-trump/'
p136
aS'http://www.foxnews.com/transcript/2015/01/16/bill-oreilly-blame-france/'
p137
aS'http://www.foxnews.com/transcript/2015/12/10/donald-trump-outlines-his-muslim-strategy/'
p138
aS'http://www.foxnews.com/transcript/2015/05/08/bill-oreilly-how-emotion-can-damage-america/'
p139
aS'http://www.foxnews.com/transcript/2016/01/26/will-michael-bloomberg-run-for-president/'
p140
aS'http://www.foxnews.com/transcript/2015/07/21/bill-oreilly-mr-obama-believes-justice-system-is-biased-against-minority/'
p141
aS'http://www.foxnews.com/transcript/2016/07/19/donald-trump-have-to-demand-law-and-order/'
p142
aS'http://www.foxnews.com/transcript/2015/01/22/national-debate-over-american-sniper/'
p143
aS'http://www.foxnews.com/transcript/2015/06/25/gross-dishonesty-in-media/'
p144
aS'http://www.foxnews.com/transcript/2016/01/05/rubio-cruz-rivalry-heating-up/'
p145
aS'http://www.foxnews.com/transcript/2016/01/28/donald-trump-weighs-in-on-gop-debate-controversy/'
p146
aS'http://www.foxnews.com/transcript/2016/07/28/mike-pence-obama-years-why-trump-message-is-resonating/'
p147
aS'http://www.foxnews.com/transcript/2015/02/26/do-our-human-rights-come-from-god/'
p148
aS'http://www.foxnews.com/transcript/2015/03/06/is-ferguson-biased-against-african-americans/'
p149
aS'http://www.foxnews.com/transcript/2015/06/30/bill-oreilly-supreme-court-rules/'
p150
aS'http://www.foxnews.com/transcript/2015/09/22/bill-oreilly-what-really-matters-in-presidential-race/'
p151
aS'http://www.foxnews.com/transcript/2016/06/10/bill-oreilly-donald-trump-only-chance-to-win-presidency/'
p152
aS'http://www.foxnews.com/transcript/2016/01/21/shrink-player-fast-and-furious-investigation-in-spotlight-again/'
p153
aS'http://www.foxnews.com/transcript/2015/03/06/bill-oreilly-hillary-clinton-latest-drama/'
p154
aS'http://www.foxnews.com/transcript/2015/04/27/growing-accusations-corruption-against-hillary-clinton/'
p155
aS'http://www.foxnews.com/transcript/2015/05/04/baltimore-next-chapter/'
p156
aS'http://www.foxnews.com/transcript/2015/03/23/more-damaging-reporting-on-hillary-clinton/'
p157
aS'http://www.foxnews.com/transcript/2016/04/07/bill-oreilly-who-wants-to-be-president/'
p158
aS'http://www.foxnews.com/transcript/2016/01/27/bill-oreilly-factor-coverage-presidential-election/'
p159
aS'http://www.foxnews.com/transcript/2015/10/01/bill-oreilly-are-americans-losing-it/'
p160
aS'http://www.foxnews.com/transcript/2016/07/21/bill-oreilly-presidential-race-and-race-in-america/'
p161
aS'http://www.foxnews.com/transcript/2015/03/03/media-wars-and-2016-elections/'
p162
aS'http://www.foxnews.com/transcript/2016/05/16/bill-oreilly-bloody-chicago-and-racism-on-display/'
p163
aS'http://www.foxnews.com/transcript/2016/07/01/loretta-lynch-meets-with-bill-clinton-amid-email-scandal/'
p164
aS'http://www.foxnews.com/transcript/2015/09/08/mounting-trouble-in-hillary-clinton-email-investigation/'
p165
aS'http://www.foxnews.com/transcript/2016/06/07/donald-trump-on-judge-comments/'
p166
aS'http://www.foxnews.com/transcript/2015/09/15/bill-oreilly-why-americans-are-so-angry/'
p167
aS'http://www.foxnews.com/transcript/2016/01/11/can-ben-carson-make-comeback/'
p168
aS'http://www.foxnews.com/transcript/2016/02/24/donald-trump-consults-with-rudy-giuliani/'
p169
aS'http://www.foxnews.com/transcript/2015/01/30/donald-trump-presidential-politics-and-factor/'
p170
aS'http://www.foxnews.com/transcript/2016/02/25/deportation-debate-on-campaign-trail/'
p171
aS'http://www.foxnews.com/transcript/2015/08/05/center-for-medical-progress-releases-new-undercover-video/'
p172
aS'http://www.foxnews.com/transcript/2016/08/02/bill-oreilly-will-president-obama-help-or-hurt-hillary-clinton-in-her-quest-to/'
p173
aS'http://www.foxnews.com/transcript/2016/08/04/white-house-on-defensive-over-iran-payment/'
p174
aS'http://www.foxnews.com/transcript/2015/05/01/is-media-inflaming-baltimore-situation/'
p175
aS'http://www.foxnews.com/transcript/2015/04/24/bill-oreilly-buying-access-to-clintons/'
p176
aS'http://www.foxnews.com/transcript/2016/06/30/how-donald-trump-would-confront-isis/'
p177
aS'http://www.foxnews.com/transcript/2016/07/18/turkey-attack-in-nice-and-campaign-2016/'
p178
aS'http://www.foxnews.com/transcript/2015/05/27/bill-oreilly-war-and-peace-in-usa/'
p179
aS'http://www.foxnews.com/transcript/2016/05/27/paper-publishes-controversial-transgender-bathroom-editorial/'
p180
aS'http://www.foxnews.com/transcript/2015/11/17/bill-oreilly-is-president-barack-obama-delusional/'
p181
aS'http://www.foxnews.com/transcript/2016/01/25/republican-primary-outlook/'
p182
aS'http://www.foxnews.com/transcript/2015/10/06/bill-oreilly-truth-about-gun-crime-in-america/'
p183
aS'http://www.foxnews.com/transcript/2016/07/26/bill-oreilly-trump-versus-obama-vision-america/'
p184
aS'http://www.foxnews.com/transcript/2015/06/19/nine-innocent-people-shot-dead-in-south-carolina/'
p185
aS'http://www.foxnews.com/transcript/2015/04/20/bill-oreilly-white-suppression-big-lie/'
p186
aS'http://www.foxnews.com/transcript/2015/04/30/will-voters-react-to-hillary-clinton-trouble/'
p187
aS'http://www.foxnews.com/transcript/2016/04/05/no-spin-zone-goes-to-cuba/'
p188
aS'http://www.foxnews.com/transcript/2016/06/07/bill-oreilly-counter-attacks-donald-trump/'
p189
aS'http://www.foxnews.com/transcript/2015/12/15/bill-oreilly-age-anger/'
p190
aS'http://www.foxnews.com/transcript/2015/02/13/interviewing-david-axelrod/'
p191
aS'http://www.foxnews.com/transcript/2016/06/22/more-far-left-propaganda-concerning-radical-islam/'
p192
aS'http://www.foxnews.com/transcript/2015/01/19/truth-about-fighting-jihad/'
p193
aS'http://www.foxnews.com/transcript/2015/05/05/bill-clinton-denying-any-foundation-wrong-doing/'
p194
aS'http://www.foxnews.com/transcript/2016/05/18/bill-oreilly-american-press-and-donald-trump/'
p195
aS'http://www.foxnews.com/transcript/2015/02/16/metta-world-peace-on-racial-division-in-america/'
p196
aS'http://www.foxnews.com/transcript/2016/02/01/bill-oreilly-iowa-dilemma/'
p197
aS'http://www.foxnews.com/transcript/2015/03/09/is-president-obama-conceding-too-much-to-iran/'
p198
aS'http://www.foxnews.com/transcript/2015/07/09/watters-world-sanctuary-city-edition/'
p199
aS'http://www.foxnews.com/transcript/2015/09/01/has-donald-trump-obscured-democratic-record/'
p200
aS'http://www.foxnews.com/transcript/2016/02/01/marco-rubio-explains-his-stance-on-illegal-immigration/'
p201
aS'http://www.foxnews.com/transcript/2014/12/23/cold-blooded-execution-two-nypd-officers/'
p202
aS'http://www.foxnews.com/transcript/2015/10/05/victims-oregon-shooting-fight-for-their-lives/'
p203
aS'http://www.foxnews.com/transcript/2015/02/27/bill-oreilly-christians-in-danger/'
p204
aS'http://www.foxnews.com/transcript/2015/04/20/suzanne-somers-enters-no-spin-zone/'
p205
aS'http://www.foxnews.com/transcript/2016/03/10/bill-oreilly-fascism-and-donald-trump/'
p206
aS'http://www.foxnews.com/transcript/2015/01/28/lt-col-shaffer-stands-by-claim-bergdahl-will-be-charged/'
p207
aS'http://www.foxnews.com/transcript/2015/01/13/mainstream-media-reporting-islamic-extremism/'
p208
aS'http://www.foxnews.com/transcript/2015/12/01/climate-change-chaos-in-paris/'
p209
aS'http://www.foxnews.com/transcript/2015/01/21/america-top-priorities-in-2015/'
p210
aS'http://www.foxnews.com/transcript/2015/06/24/bill-oreilly-is-american-compact-falling-apart/'
p211
aS'http://www.foxnews.com/transcript/2015/12/04/isis-collaborators-in-usa/'
p212
aS'http://www.foxnews.com/transcript/2015/06/17/donald-trump-running-for-president/'
p213
aS'http://www.foxnews.com/transcript/2015/02/20/media-coverage-holy-war/'
p214
aS'http://www.foxnews.com/transcript/2015/02/23/will-american-imams-denounce-jihad-in-public-way/'
p215
aS'http://www.foxnews.com/transcript/2015/01/28/bill-oreilly-presidential-race-is-on-very-early-this-time-around/'
p216
aS'http://www.foxnews.com/transcript/2015/06/16/bill-oreilly-hillary-clinton-for-president/'
p217
aS'http://www.foxnews.com/transcript/2015/01/16/changing-american-family/'
p218
aS'http://www.foxnews.com/transcript/2015/05/20/inside-bandidos-motorcycle-gang/'
p219
aS'http://www.foxnews.com/transcript/2016/01/07/bill-oreilly-hillary-clinton-and-your-money/'
p220
aS'http://www.foxnews.com/transcript/2015/08/06/bill-oreilly-more-bad-news-for-hillary-clinton/'
p221
aS'http://www.foxnews.com/transcript/2016/06/08/bill-oreilly-did-hillary-clinton-catch-break-because-donald-trump-criticized/'
p222
aS'http://www.foxnews.com/transcript/2015/05/08/did-know-that-bill-oreilly/'
p223
aS'http://www.foxnews.com/transcript/2015/01/29/how-to-defeat-hillary-clinton/'
p224
aS'http://www.foxnews.com/transcript/2016/06/10/is-left-justifying-campaign-violence/'
p225
aS'http://www.foxnews.com/transcript/2015/05/21/veterans-against-isis/'
p226
aS'http://www.foxnews.com/transcript/2016/04/05/bill-oreilly-white-grievance-and-republican-party/'
p227
aS'http://www.foxnews.com/transcript/2015/12/08/how-carly-fiorina-would-defeat-isis/'
p228
aS'http://www.foxnews.com/transcript/2016/03/01/how-will-super-tuesday-affect-trump-campaign/'
p229
aS'http://www.foxnews.com/transcript/2016/03/11/bill-oreilly-personal-attacks-in-republican-primaries/'
p230
aS'http://www.foxnews.com/transcript/2015/12/17/bill-oreilly-can-anyone-save-america/'
p231
aS'http://www.foxnews.com/transcript/2015/01/14/minimal-coverage-president-absence-in-paris/'
p232
aS'http://www.foxnews.com/transcript/2015/12/24/deportations-drop-dramatically/'
p233
aS'http://www.foxnews.com/transcript/2016/05/27/bill-oreilly-how-much-trouble-is-hillary-clinton-really-in/'
p234
aS'http://www.foxnews.com/transcript/2015/12/30/battle-between-donald-trump-and-clintons-escalates/'
p235
aS'http://www.foxnews.com/transcript/2015/08/17/2016-presidential-hopefulls-head-to-iowa/'
p236
aS'http://www.foxnews.com/transcript/2015/06/12/what-will-happen-to-brian-williams/'
p237
aS'http://www.foxnews.com/transcript/2015/12/29/ben-carson-on-mosque-surveillance/'
p238
aS'http://www.foxnews.com/transcript/2014/12/16/jeb-bush-2016/'
p239
aS'http://www.foxnews.com/transcript/2016/07/27/trump-talks-dnc-minimum-wage-climate-change-and-nato/'
p240
aS'http://www.foxnews.com/transcript/2016/05/17/how-will-trump-campaign-against-hillary-clinton/'
p241
aS'http://www.foxnews.com/transcript/2015/11/25/sympathy-for-syrian-refugees/'
p242
aS'http://www.foxnews.com/transcript/2015/04/22/bill-oreilly-hillary-dilemma/'
p243
aS'http://www.foxnews.com/transcript/2015/12/07/stopping-home-grown-terror-threat/'
p244
aS'http://www.foxnews.com/transcript/2015/11/24/bill-oreilly-real-story-about-syrian-refugees/'
p245
aS'http://www.foxnews.com/transcript/2015/07/24/bill-oreilly-abortion-and-network-news/'
p246
aS'http://www.foxnews.com/transcript/2016/07/08/bill-oreilly-why-republicans-and-democrats-tend-to-dislike-each-other/'
p247
aS'http://www.foxnews.com/transcript/2015/12/21/president-obama-gives-end-year-press-conference/'
p248
aS'http://www.foxnews.com/transcript/2015/05/28/bill-oreilly-liberal-versus-conservative-americans/'
p249
aS'http://www.foxnews.com/transcript/2015/08/14/is-planned-parenthood-targeting-certain-neighborhoods/'
p250
aS'http://www.foxnews.com/transcript/2016/07/26/how-will-dnc-handle-illegal-immigration/'
p251
aS'http://www.foxnews.com/transcript/2016/06/09/why-does-illegal-immigration-chaos-continue-in-us/'
p252
aS'http://www.foxnews.com/transcript/2015/02/26/bill-oreilly-hating-president-obama/'
p253
aS'http://www.foxnews.com/transcript/2015/08/26/covering-hillary-clinton-vs-joe-biden/'
p254
aS'http://www.foxnews.com/transcript/2015/08/27/wdbj-news-team-shot-dead-on-live-tv/'
p255
aS'http://www.foxnews.com/transcript/2015/05/07/nicolle-wallace-enters-no-spin-zone/'
p256
aS'http://www.foxnews.com/transcript/2015/06/10/bill-oreilly-war-on-cops/'
p257
aS'http://www.foxnews.com/transcript/2015/01/20/beyonce-and-first-family/'
p258
aS'http://www.foxnews.com/transcript/2016/03/03/bill-oreilly-super-tuesday/'
p259
aS'http://www.foxnews.com/transcript/2015/03/24/bill-oreilly-is-obama-administration-losing-war-on-terror/'
p260
aS'http://www.foxnews.com/transcript/2016/02/11/donald-trump-on-trade-deficit-with-china/'
p261
aS'http://www.foxnews.com/transcript/2016/06/17/bill-oreilly-why-presidential-campaign-is-so-difficult-to-cover/'
p262
aS'http://www.foxnews.com/transcript/2016/06/27/fallout-from-britain-vote-to-leave-eu/'
p263
aS'http://www.foxnews.com/transcript/2015/07/17/donald-trump-reacts-to-shooting-in-chattanooga/'
p264
aS'http://www.foxnews.com/transcript/2015/12/09/trump-doubles-down-on-controversial-muslim-plan/'
p265
aS'http://www.foxnews.com/transcript/2016/05/19/bill-oreilly-will-violence-mare-upcoming-presidential-race/'
p266
aS'http://www.foxnews.com/transcript/2016/02/03/bill-oreilly-iowa-vote/'
p267
aS'http://www.foxnews.com/transcript/2015/01/07/can-athletes-and-entertainers-calm-racial-tensions/'
p268
aS'http://www.foxnews.com/transcript/2016/05/20/bill-oreilly-hillary-clinton-or-donald-trump/'
p269
aS'http://www.foxnews.com/transcript/2015/09/16/bill-oreilly-dramatic-muslim-invasion/'
p270
aS'http://www.foxnews.com/transcript/2015/04/23/bill-oreilly-president-obama-believes-his-foreign-policy-is-working/'
p271
aS'http://www.foxnews.com/transcript/2016/03/08/bill-oreilly-factor-viewers-and-republican-race/'
p272
aS'http://www.foxnews.com/transcript/2015/05/06/isis-brutality-continues/'
p273
aS'http://www.foxnews.com/transcript/2015/07/20/is-obama-administration-soft-on-islamic-terror/'
p274
aS'http://www.foxnews.com/transcript/2015/01/20/bill-oreilly-president-obama-and-real-state-union/'
p275
aS'http://www.foxnews.com/transcript/2016/02/23/ted-cruz-on-his-illegal-immigration-stance/'
p276
aS'http://www.foxnews.com/transcript/2016/07/06/donald-trump-reacts-to-fbi-clinton-decision/'
p277
aS'http://www.foxnews.com/transcript/2016/05/20/feminism-and-reporting-on-donald-trump/'
p278
aS'http://www.foxnews.com/transcript/2015/12/23/donald-trump-ramping-up-attacks-on-hillary-clinton/'
p279
aS'http://www.foxnews.com/transcript/2016/04/08/bill-oreilly-new-york-values/'
p280
aS'http://www.foxnews.com/transcript/2015/03/19/bill-oreilly-anti-capitalist-violence-on-display/'
p281
aS'http://www.foxnews.com/transcript/2015/07/14/supporting-kate-law/'
p282
aS'http://www.foxnews.com/transcript/2015/06/23/bill-oreilly-rand-paul-wants-to-put-money-in-your-pocket/'
p283
aS'http://www.foxnews.com/transcript/2016/06/16/bill-oreilly-do-something/'
p284
aS'http://www.foxnews.com/transcript/2015/07/15/bill-oreilly-enabling-evil/'
p285
aS'http://www.foxnews.com/transcript/2015/03/18/president-obama-liberal-legacy/'
p286
aS'http://www.foxnews.com/transcript/2016/02/22/final-push-for-gop-candidates-in-south-carolina/'
p287
aS'http://www.foxnews.com/transcript/2015/06/22/bill-oreilly-analyzing-charleston-terror-attack/'
p288
aS'http://www.foxnews.com/transcript/2015/03/04/hillary-clinton-email-controversy/'
p289
aS'http://www.foxnews.com/transcript/2015/01/05/is-america-more-racially-divided-today-than-2008/'
p290
aS'http://www.foxnews.com/transcript/2015/09/16/donald-trump-continues-to-lead-gop-presidential-field/'
p291
aS'http://www.foxnews.com/transcript/2015/06/18/bill-oreilly-perhaps-best-reason-should-all-leave-united-states-right-now/'
p292
aS'http://www.foxnews.com/transcript/2015/02/09/president-obama-comparing-crusades-to-muslim-terror/'
p293
aS'http://www.foxnews.com/transcript/2015/12/11/assessing-donald-trump-media-presence/'
p294
aS'http://www.foxnews.com/transcript/2016/06/23/where-is-wife-omar-mateen/'
p295
aS'http://www.foxnews.com/transcript/2016/07/25/bill-oreilly-on-rampage-in-munich/'
p296
aS'http://www.foxnews.com/transcript/2016/01/08/bill-oreilly-can-trump-win/'
p297
aS'http://www.foxnews.com/transcript/2016/01/22/mike-huckabee-on-state-his-campaign/'
p298
aS'http://www.foxnews.com/transcript/2016/02/24/bill-oreilly-covering-presidential-race/'
p299
aS'http://www.foxnews.com/transcript/2015/05/12/bill-oreilly-tough-times-for-social-conservatives-in-america/'
p300
aS'http://www.foxnews.com/transcript/2016/05/26/state-department-claims-clinton-to-blame-for-email-misuse/'
p301
aS'http://www.foxnews.com/transcript/2014/12/15/confronting-president-obama/'
p302
aS'http://www.foxnews.com/transcript/2015/06/09/bill-oreilly-more-danger-for-americans/'
p303
aS'http://www.foxnews.com/transcript/2016/01/20/bill-oreilly-president-obama-ordering-illegal-aliens-out-country/'
p304
aS'http://www.foxnews.com/transcript/2016/01/28/donald-trump-weighs-in-on-gop-debate-controversy-part-ii/'
p305
aS'http://www.foxnews.com/transcript/2016/06/14/bill-oreilly-aftermath-orlando-massacre/'
p306
aS'http://www.foxnews.com/transcript/2016/03/07/election-2016-gop-debate-fallout/'
p307
aS'http://www.foxnews.com/transcript/2015/01/22/bill-oreilly-world-according-to-president-obama/'
p308
aS'http://www.foxnews.com/transcript/2015/02/18/white-house-neglecting-major-terror-details/'
p309
aS'http://www.foxnews.com/transcript/2016/02/12/bill-oreilly-fairness-in-news-coverage-presidential-race/'
p310
aS'http://www.foxnews.com/transcript/2016/03/08/nancy-reagan-legacy/'
p311
aS'http://www.foxnews.com/transcript/2015/12/14/rand-paul-strategy-for-war-on-terror/'
p312
aS'http://www.foxnews.com/transcript/2015/01/08/preventing-future-terror-attacks/'
p313
aS'http://www.foxnews.com/transcript/2015/05/26/ted-cruz-confronts-local-reporter/'
p314
aS'http://www.foxnews.com/transcript/2015/04/17/bill-oreilly-hillary-clinton-on-campaign-trail/'
p315
aS'http://www.foxnews.com/transcript/2015/08/19/bill-oreilly-is-american-justice-system-on-verge-collapse/'
p316
aS'http://www.foxnews.com/transcript/2016/05/24/bill-oreilly-most-americans-dont-like-their-presidential-candidates/'
p317
aS'http://www.foxnews.com/transcript/2015/02/13/bill-oreilly-are-safe/'
p318
aS'http://www.foxnews.com/transcript/2016/01/07/refugee-chaos-in-germany/'
p319
aS'http://www.foxnews.com/transcript/2015/02/20/bill-oreilly-more-proof-american-media-is-corrupt/'
p320
aS'http://www.foxnews.com/transcript/2015/03/02/eric-holder-and-race-card/'
p321
aS'http://www.foxnews.com/transcript/2015/05/22/bill-oreilly-president-obama-military-and-climate-change/'
p322
aS'http://www.foxnews.com/transcript/2015/09/18/ben-carson-foreign-policy-strategy/'
p323
aS'http://www.foxnews.com/transcript/2015/06/11/bill-oreilly-back-to-iraq/'
p324
aS'http://www.foxnews.com/transcript/2016/05/23/will-gop-unite-to-defeat-hillary-clinton/'
p325
aS'http://www.foxnews.com/transcript/2015/12/18/bill-oreilly-donald-trump-secret-strategy/'
p326
aS'http://www.foxnews.com/transcript/2015/12/01/bill-oreilly-politics-and-murder/'
p327
aS'http://www.foxnews.com/transcript/2016/01/22/bill-oreilly-hysteria-surrounding-donald-trump/'
p328
aS'http://www.foxnews.com/transcript/2016/03/04/bill-oreilly-republican-party-now-in-crisis/'
p329
aS'http://www.foxnews.com/transcript/2015/09/30/donald-trump-returns-to-factor/'
p330
aS'http://www.foxnews.com/transcript/2015/12/04/bill-oreilly-more-americans-die-at-hands-muslim-extremists/'
p331
aS'http://www.foxnews.com/transcript/2016/01/29/media-reaction-to-donald-trump-on-factor/'
p332
aS'http://www.foxnews.com/transcript/2015/12/11/bill-oreilly-explaining-trump-surge/'
p333
aS'http://www.foxnews.com/transcript/2015/08/10/breaking-down-republican-presidential-debate/'
p334
aS'http://www.foxnews.com/transcript/2016/06/15/bill-oreilly-acceptable-losses/'
p335
aS'http://www.foxnews.com/transcript/2016/06/20/who-to-blame-for-orlando-terror-attack/'
p336
aS'http://www.foxnews.com/transcript/2015/03/20/bill-oreilly-seeking-attention-american-voter/'
p337
aS'http://www.foxnews.com/transcript/2015/10/01/is-pentagon-rebelling-against-president-obama/'
p338
aS'http://www.foxnews.com/transcript/2016/06/21/bill-oreilly-terrorism-in-american-left/'
p339
aS'http://www.foxnews.com/transcript/2016/07/20/bill-oreilly-how-donald-trump-can-indeed-win-presidency/'
p340
aS'http://www.foxnews.com/transcript/2015/09/08/bill-oreilly-changing-republican-party/'
p341
aS'http://www.foxnews.com/transcript/2015/06/23/hate-groups-in-united-states/'
p342
aS'http://www.foxnews.com/transcript/2015/02/19/bill-oreilly-judeo-christian-philosophy-versus-jihad/'
p343
aS'http://www.foxnews.com/transcript/2015/05/06/bill-oreilly-defeating-jihad-by-not-being-dumb/'
p344
aS'http://www.foxnews.com/transcript/2015/02/25/bill-oreilly-isis-atrocities-continue-as-cowardly-world-does-little/'
p345
aS'http://www.foxnews.com/transcript/2014/12/17/bill-oreilly-how-liberalism-is-affecting-all-us/'
p346
aS'http://www.foxnews.com/transcript/2014/12/18/bill-oreilly-why-some-black-americans-dislike-their-country/'
p347
aS'http://www.foxnews.com/transcript/2015/08/26/bill-oreilly-joe-biden-for-president/'
p348
aS'http://www.foxnews.com/transcript/2015/11/20/officials-confirm-death-paris-attack-mastermind/'
p349
aS'http://www.foxnews.com/transcript/2015/03/04/bill-oreilly-president-obama-under-tremendous-pressure-over-iran/'
p350
aS'http://www.foxnews.com/transcript/2015/06/17/bill-oreilly-why-poor-and-working-class-americans-are-being-kept-down/'
p351
aS'http://www.foxnews.com/transcript/2015/04/29/unrest-in-baltimore/'
p352
aS'http://www.foxnews.com/transcript/2015/02/16/bill-oreilly-three-muslims-murdered-in-north-carolina-was-it-hate-crime/'
p353
aS'http://www.foxnews.com/transcript/2016/04/08/ted-cruz-on-new-york-primary/'
p354
aS'http://www.foxnews.com/transcript/2015/02/24/cbs-news-releases-video-falklands-war-riots/'
p355
aS'http://www.foxnews.com/transcript/2015/01/06/congressman-speaks-to-controversial-organization/'
p356
aS'http://www.foxnews.com/transcript/2015/05/01/bill-oreilly-baltimore-rioting-now-leading-to-madness/'
p357
aS'http://www.foxnews.com/transcript/2016/04/06/bill-oreilly-big-night-for-republican-party-in-particular/'
p358
aS'http://www.foxnews.com/transcript/2016/01/20/can-gop-defeat-democrats-in-2016/'
p359
aS'http://www.foxnews.com/transcript/2015/07/15/deal-reached-with-iran-over-nuclear-weapons/'
p360
aS'http://www.foxnews.com/transcript/2016/06/28/bill-oreilly-open-borders-dont-work/'
p361
aS'http://www.foxnews.com/transcript/2016/08/01/was-hillary-dnc-speech-effective/'
p362
aS'http://www.foxnews.com/transcript/2016/07/06/bill-oreilly-no-prosecution-hillary-clinton/'
p363
aS'http://www.foxnews.com/transcript/2015/09/03/jorge-ramos-enters-no-spin-zone/'
p364
aS'http://www.foxnews.com/transcript/2015/12/08/bill-oreilly-why-obama-administration-is-losing-war-on-terror/'
p365
aS'http://www.foxnews.com/transcript/2016/01/06/bill-oreilly-truth-about-guns-in-america/'
p366
aS'http://www.foxnews.com/transcript/2016/05/25/bill-oreilly-americans-and-money/'
p367
aS'http://www.foxnews.com/transcript/2016/06/16/paul-ryan-enters-no-spin-zone/'
p368
aS'http://www.foxnews.com/transcript/2016/06/21/donald-trump-on-latest-presidential-polling/'
p369
aS'http://www.foxnews.com/transcript/2015/09/02/bill-oreilly-family-kate-steinle-plans-to-sue-city-and-county-san-francisco/'
p370
aS'http://www.foxnews.com/transcript/2016/07/29/bill-oreilly-party-love-vs-party-hate/'
p371
aS'http://www.foxnews.com/transcript/2015/06/19/bill-oreilly-bad-day-for-america/'
p372
aS'http://www.foxnews.com/transcript/2015/05/05/bill-oreilly-another-round-why-politicians-will-not-tell-truth/'
p373
aS'http://www.foxnews.com/transcript/2015/04/29/bill-oreilly-who-is-big-loser-in-baltimore-riots/'
p374
aS'http://www.foxnews.com/transcript/2015/08/19/donald-trump-immigration-plan/'
p375
aS'http://www.foxnews.com/transcript/2015/07/17/bill-oreilly-vicious-terror-attack-in-chattanooga-tennessee/'
p376
aS'http://www.foxnews.com/transcript/2015/11/25/bill-oreilly-is-world-war-getting-closer/'
p377
aS'http://www.foxnews.com/transcript/2015/12/17/donald-trump-breaks-down-his-debate-standing/'
p378
aS'http://www.foxnews.com/transcript/2015/02/19/religious-leaders-demanding-action-against-isis/'
p379
aS'http://www.foxnews.com/transcript/2015/06/30/how-america-is-changing/'
p380
aS'http://www.foxnews.com/transcript/2015/08/20/truth-serum-minors-illegally-crossing-border/'
p381
aS'http://www.foxnews.com/transcript/2015/02/11/bill-oreilly-another-american-killed-by-isis-savages/'
p382
aS'http://www.foxnews.com/transcript/2015/07/01/bill-oreilly-why-conservatives-are-losing-ground-in-america/'
p383
aS'http://www.foxnews.com/transcript/2015/01/26/bill-oreilly-how-internet-is-deceiving/'
p384
aS'http://www.foxnews.com/transcript/2016/05/24/donald-trump-plan-to-fight-terrorism/'
p385
aS'http://www.foxnews.com/transcript/2015/03/18/bill-oreilly-president-obama-defines-isis/'
p386
aS'http://www.foxnews.com/transcript/2016/05/16/trump-narrows-down-vp-choice-to-five-individuals/'
p387
aS'http://www.foxnews.com/transcript/2015/08/05/bill-oreilly-very-hot-presidential-debate/'
p388
aS'http://www.foxnews.com/transcript/2015/07/13/bill-oreilly-funeral-kate-steinle/'
p389
aS'http://www.foxnews.com/transcript/2015/09/30/bill-oreilly-will-kate-law-pass-in-washington/'
p390
aS'http://www.foxnews.com/transcript/2015/06/29/president-obama-crumbling-foreign-policy/'
p391
aS'http://www.foxnews.com/transcript/2015/06/18/investigating-clinton-foundation/'
p392
aS'http://www.foxnews.com/transcript/2016/04/06/tavis-smiley-reacts-to-2016-presidential-politics/'
p393
aS'http://www.foxnews.com/transcript/2016/06/02/surge-illegal-aliens-crossing-border/'
p394
aS'http://www.foxnews.com/transcript/2015/08/21/assessing-black-lives-matter-agenda/'
p395
aS'http://www.foxnews.com/transcript/2015/02/25/isis-on-march/'
p396
aS'http://www.foxnews.com/transcript/2015/04/24/does-president-obama-have-problem-with-christians/'
p397
aS'http://www.foxnews.com/transcript/2016/06/13/bill-oreilly-terror-in-orlando-florida/'
p398
aS'http://www.foxnews.com/transcript/2015/09/11/bill-oreilly-what-presidential-candidates-are-doing-wrong/'
p399
aS'http://www.foxnews.com/transcript/2016/02/12/marco-rubio-on-his-south-carolina-strategy/'
p400
aS'http://www.foxnews.com/transcript/2015/04/23/clinton-foundation-donations-brought-under-scrutiny/'
p401
aS'http://www.foxnews.com/transcript/2016/07/07/fbi-contradicting-clinton-campaign-trail-comments/'
p402
aS'http://www.foxnews.com/transcript/2015/01/26/american-sniper-controversy-rages-on/'
p403
aS'http://www.foxnews.com/transcript/2015/07/16/bill-oreilly-president-obama-defending-iranian-nuke-deal-and-other/'
p404
aS'http://www.foxnews.com/transcript/2015/02/17/putting-blame-on-wrong-villain/'
p405
aS'http://www.foxnews.com/transcript/2015/09/17/ted-cruz-post-debate-response/'
p406
aS'http://www.foxnews.com/transcript/2015/02/11/gary-sinise-enters-no-spin-zone/'
p407
aS'http://www.foxnews.com/transcript/2015/09/15/kim-davis-returns-to-work/'
p408
aS'http://www.foxnews.com/transcript/2015/12/02/truth-serum-muslims-celebrating-after-11-attack/'
p409
aS'http://www.foxnews.com/transcript/2015/06/09/how-should-gop-approach-immigration/'
p410
aS'http://www.foxnews.com/transcript/2016/01/27/ted-cruz-on-his-campaign-ahead-iowa-caucuses/'
p411
aS'http://www.foxnews.com/transcript/2016/08/04/bill-oreilly-what-folks-think-about-trump-campaign/'
p412
aS'http://www.foxnews.com/transcript/2015/08/13/very-bad-day-for-hillary-clinton/'
p413
aS'http://www.foxnews.com/transcript/2016/06/22/bill-oreilly-clintontrump-race-intensifies/'
p414
aS'http://www.foxnews.com/transcript/2015/01/21/bill-oreilly-fighting-terrorism-is-now-top-priority/'
p415
aS'http://www.foxnews.com/transcript/2015/11/18/bill-oreilly-president-obama-continues-to-divide-country-over-terrorism/'
p416
aS'http://www.foxnews.com/transcript/2015/03/05/illegal-immigrants-and-crime/'
p417
aS'http://www.foxnews.com/transcript/2015/09/09/donald-trump-lays-out-foreign-and-domestic-strategies/'
p418
aS'http://www.foxnews.com/transcript/2015/07/22/bill-oreilly-anarchy-and-immigration-law/'
p419
aS'http://www.foxnews.com/transcript/2015/02/17/bill-oreilly-jv-doing-some-serious-damage/'
p420
aS'http://www.foxnews.com/transcript/2015/12/15/will-president-obama-get-tougher-on-isis/'
p421
aS'http://www.foxnews.com/transcript/2015/01/23/ferguson-justice-department-decision/'
p422
aS'http://www.foxnews.com/transcript/2015/12/09/bill-oreilly-donald-trump-shaking-up-politics-once-again/'
p423
aS'http://www.foxnews.com/transcript/2015/08/20/bill-oreilly-storm-clouds-for-hillary-clinton/'
p424
aS'http://www.foxnews.com/transcript/2016/01/26/bill-oreilly-conservatives-versus-trump/'
p425
aS'http://www.foxnews.com/transcript/2015/08/12/politics-race-in-2016-campaign/'
p426
aS'http://www.foxnews.com/transcript/2015/10/06/chris-christie-enters-no-spin-zone/'
p427
aS'http://www.foxnews.com/transcript/2015/11/23/election-2016-focus-turns-to-terrorism/'
p428
aS'http://www.foxnews.com/transcript/2015/07/14/kate-steinle-parents-share-her-legacy/'
p429
aS'http://www.foxnews.com/transcript/2015/02/09/bill-oreilly-is-president-obama-destroying-his-own-legacy/'
p430
aS'http://www.foxnews.com/transcript/2016/01/20/bill-oreilly-state-democrat-party/'
p431
aS'http://www.foxnews.com/transcript/2015/04/20/jeb-bush-problem-and-isis-presence-in-iraq/'
p432
aS'http://www.foxnews.com/transcript/2015/08/18/road-to-2016-election-heats-up/'
p433
aS'http://www.foxnews.com/transcript/2015/04/30/bill-oreilly-truth-about-riots-in-baltimore-part-2/'
p434
aS'http://www.foxnews.com/transcript/2015/06/10/did-red-cross-mismanage-millions-donated-dollars/'
p435
aS'http://www.foxnews.com/transcript/2016/06/08/can-hillary-clinton-persuade-her-doubters/'
p436
aS'http://www.foxnews.com/transcript/2015/05/27/opposing-patriot-act/'
p437
aS'http://www.foxnews.com/transcript/2015/03/20/gop-2016-israel-and-president-obama/'
p438
aS'http://www.foxnews.com/transcript/2016/02/17/donald-trump-vs-ted-cruz/'
p439
aS'http://www.foxnews.com/transcript/2015/08/31/more-outrageous-comments-from-hillary-clinton/'
p440
a.