(lp0
S'http://www.foxnews.com/transcript/2016/04/11/ted-cruz-on-attack/'
p1
aS'http://www.foxnews.com/transcript/2016/05/09/bill-oreilly-presidential-campaign-already-crazy/'
p2
aS'http://www.foxnews.com/transcript/2015/07/08/bill-oreilly-murder-kate-steinle/'
p3
aS'http://www.foxnews.com/transcript/2016/08/02/criticizing-black-lives-matter/'
p4
aS'http://www.foxnews.com/transcript/2015/05/21/bill-oreilly-will-jihad-defeat-america/'
p5
aS'http://www.foxnews.com/transcript/2016/02/23/bill-oreilly-south-carolina-vote-and-other-stuff/'
p6
aS'http://www.foxnews.com/transcript/2015/08/24/birthright-citizenship-battle/'
p7
aS'http://www.foxnews.com/transcript/2015/04/16/bill-oreilly-anti-police-movement-in-america/'
p8
aS'http://www.foxnews.com/transcript/2014/12/16/bill-oreilly-cia-and-police/'
p9
aS'http://www.foxnews.com/transcript/2015/10/05/bill-oreilly-portrait-killer/'
p10
aS'http://www.foxnews.com/transcript/2015/03/11/gop-senators-send-controversial-letter-to-iran/'
p11
aS'http://www.foxnews.com/transcript/2016/06/03/bill-oreilly-can-hillary-clinton-protect-us-from-villains-overseas/'
p12
aS'http://www.foxnews.com/transcript/2015/02/12/president-obama-proposal-to-fight-isis/'
p13
aS'http://www.foxnews.com/transcript/2015/06/08/income-inequality-in-america/'
p14
aS'http://www.foxnews.com/transcript/2015/03/26/left-continuing-to-attack-ted-cruz/'
p15
aS'http://www.foxnews.com/transcript/2015/11/10/bill-oreilly-defamation-game/'
p16
aS'http://www.foxnews.com/transcript/2016/02/09/bill-oreilly-how-american-media-is-covering-presidential-race/'
p17
aS'http://www.foxnews.com/transcript/2015/10/02/bill-oreilly-mass-murder-in-oregon/'
p18
aS'http://www.foxnews.com/transcript/2016/02/15/bill-oreilly-more-campaign-madness/'
p19
aS'http://www.foxnews.com/transcript/2015/12/22/did-president-obama-play-race-card-against-donald-trump/'
p20
aS'http://www.foxnews.com/transcript/2015/08/27/bill-oreilly-donald-trump-vs-jorge-ramos/'
p21
aS'http://www.foxnews.com/transcript/2016/06/09/bill-oreilly-thank-god-primaries-are-over/'
p22
aS'http://www.foxnews.com/transcript/2015/10/09/roseburg-residents-react-to-president-upcoming-visit/'
p23
aS'http://www.foxnews.com/transcript/2015/01/23/bill-oreilly-race-and-corruption/'
p24
aS'http://www.foxnews.com/transcript/2015/03/19/cheney-president-obama-worst-president-in-my-lifetime/'
p25
aS'http://www.foxnews.com/transcript/2016/04/07/what-next-after-cruz-sanders-victories-in-wisconsin/'
p26
aS'http://www.foxnews.com/transcript/2014/12/19/top-stories-2014/'
p27
aS'http://www.foxnews.com/transcript/2014/12/18/president-obama-normalizing-relations-with-cuba/'
p28
aS'http://www.foxnews.com/transcript/2015/04/21/bill-oreilly-income-inequality-in-america/'
p29
aS'http://www.foxnews.com/transcript/2015/10/08/will-bowe-bergdahl-face-desertion-charges/'
p30
aS'http://www.foxnews.com/transcript/2016/02/26/is-donald-trump-inevitable-republican-nominee/'
p31
aS'http://www.foxnews.com/transcript/2015/06/22/are-black-americans-in-danger/'
p32
aS'http://www.foxnews.com/transcript/2015/10/09/bill-oreilly-will-kate-law-ever-get-passed/'
p33
aS'http://www.foxnews.com/transcript/2016/05/05/trump-on-potential-vp-picks-have-lot-candidates/'
p34
aS'http://www.foxnews.com/transcript/2016/01/15/bill-oreilly-illegal-immigration-and-republican-party/'
p35
aS'http://www.foxnews.com/transcript/2015/12/02/bill-oreilly-left-secret-immigration-plan/'
p36
aS'http://www.foxnews.com/transcript/2015/07/08/president-obama-latest-isis-strategy/'
p37
aS'http://www.foxnews.com/transcript/2016/07/27/bill-oreilly-countering-donald-trump/'
p38
aS'http://www.foxnews.com/transcript/2015/03/12/bill-oreilly-aftermath-e-mail-gate/'
p39
aS'http://www.foxnews.com/transcript/2015/04/16/truth-serum-entitlement-abuse/'
p40
aS'http://www.foxnews.com/transcript/2016/04/04/ted-cruz-on-battle-for-wisconsin/'
p41
aS'http://www.foxnews.com/transcript/2016/05/06/media-reaction-to-trump-clinton-matchup/'
p42
aS'http://www.foxnews.com/transcript/2015/07/13/igniting-immigration-debate/'
p43
aS'http://www.foxnews.com/transcript/2016/03/03/how-would-ted-koppel-cover-donald-trump/'
p44
aS'http://www.foxnews.com/transcript/2015/03/17/bill-oreilly-what-will-happen-to-hillary-clinton/'
p45
aS'http://www.foxnews.com/transcript/2015/11/10/media-trying-to-diminish-ben-carson/'
p46
aS'http://www.foxnews.com/transcript/2015/04/13/eric-bolling-political-dynasties/'
p47
aS'http://www.foxnews.com/transcript/2015/02/10/bill-oreilly-is-president-obama-most-polarizing-chief-executive-in-american/'
p48
aS'http://www.foxnews.com/transcript/2015/01/19/bill-oreilly-barack-obama-kareem-abdul-jabbar-and-islam/'
p49
aS'http://www.foxnews.com/transcript/2016/08/05/new-battleground-polls-shakeup-presidential-race/'
p50
aS'http://www.foxnews.com/transcript/2015/10/29/bill-oreilly-republican-debate/'
p51
aS'http://www.foxnews.com/transcript/2015/03/23/bill-oreilly-is-us-foreign-policy-collapsing/'
p52
aS'http://www.foxnews.com/transcript/2015/09/29/will-hillary-clinton-email-scandal-derail-her-campaign/'
p53
aS'http://www.foxnews.com/transcript/2016/02/27/bill-oreilly-tenth-republican-debate/'
p54
aS'http://www.foxnews.com/transcript/2015/03/17/deadline-for-nuclear-negotiations-approaches/'
p55
aS'http://www.foxnews.com/transcript/2016/02/25/deportation-debate-on-campaign-trail/'
p56
aS'http://www.foxnews.com/transcript/2015/03/05/bill-oreilly-trust-factor/'
p57
aS'http://www.foxnews.com/transcript/2015/04/14/how-will-hillary-clinton-defend-her-record/'
p58
aS'http://www.foxnews.com/transcript/2015/09/21/will-government-shut-down-over-planned-parenthood/'
p59
aS'http://www.foxnews.com/transcript/2015/11/09/ben-carson-responds-to-controversy-about-claims/'
p60
aS'http://www.foxnews.com/transcript/2016/08/03/bill-oreilly-lesson-for-donald-trump/'
p61
aS'http://www.foxnews.com/transcript/2015/02/18/bill-oreilly-holy-war-begins/'
p62
aS'http://www.foxnews.com/transcript/2015/04/21/how-clintons-made-their-money/'
p63
aS'http://www.foxnews.com/transcript/2015/02/06/reporting-reaction-to-isis-latest-atrocity/'
p64
aS'http://www.foxnews.com/transcript/2015/11/13/bill-oreilly-new-witch-hunters/'
p65
aS'http://www.foxnews.com/transcript/2015/07/23/did-mohammod-youssuf-abdulazeez-turn-to-radical-islam/'
p66
aS'http://www.foxnews.com/transcript/2016/05/11/donald-trump-reacts-to-new-polling/'
p67
aS'http://www.foxnews.com/transcript/2016/01/12/bill-oreilly-here-come-refugees/'
p68
aS'http://www.foxnews.com/transcript/2015/09/18/bill-oreilly-what-america-learned-from-second-republican-debate/'
p69
aS'http://www.foxnews.com/transcript/2015/09/24/carly-fiorina-poll-numbers-rising-quickly/'
p70
aS'http://www.foxnews.com/transcript/2015/07/31/court-stops-release-undercover-pro-life-videos/'
p71
aS'http://www.foxnews.com/transcript/2016/05/26/bill-oreilly-how-black-lives-matter-is-killing-americans/'
p72
aS'http://www.foxnews.com/transcript/2016/02/06/bill-oreilly-some-new-polling-out-new-hampshire/'
p73
aS'http://www.foxnews.com/transcript/2016/03/11/bill-oreilly-personal-attacks-in-republican-primaries/'
p74
aS'http://www.foxnews.com/transcript/2015/07/07/sanctuary-cities-in-america/'
p75
aS'http://www.foxnews.com/transcript/2016/07/22/bill-oreilly-some-drama-at-this-convention-and-it-took-place-last-night/'
p76
aS'http://www.foxnews.com/transcript/2015/03/27/is-obama-administration-defending-indefensible/'
p77
aS'http://www.foxnews.com/transcript/2015/10/26/bill-oreilly-democratic-party-moving-far-left/'
p78
aS'http://www.foxnews.com/transcript/2015/03/31/nuclear-deal-deadline-looms/'
p79
aS'http://www.foxnews.com/transcript/2015/07/21/donald-trump-criticizing-john-mccain/'
p80
aS'http://www.foxnews.com/transcript/2015/11/13/did-hillary-clinton-try-to-join-marines/'
p81
aS'http://www.foxnews.com/transcript/2016/06/02/bill-oreilly-donald-trump-and-media/'
p82
aS'http://www.foxnews.com/transcript/2015/02/10/david-axelrod-enters-no-spin-zone/'
p83
aS'http://www.foxnews.com/transcript/2015/07/24/donald-trump-heads-to-border/'
p84
aS'http://www.foxnews.com/transcript/2015/07/16/planned-parenthood-under-fire-for-controversial-video/'
p85
aS'http://www.foxnews.com/transcript/2015/08/25/another-bad-day-for-stock-market/'
p86
aS'http://www.foxnews.com/transcript/2016/02/11/bill-oreilly-verbal-warfare-breaking-out-over-south-carolina/'
p87
aS'http://www.foxnews.com/transcript/2016/06/06/mark-cuban-for-vice-president/'
p88
aS'http://www.foxnews.com/transcript/2016/01/13/bill-oreilly-state-union/'
p89
aS'http://www.foxnews.com/transcript/2016/06/15/is-terrorism-expanding-under-president-obama/'
p90
aS'http://www.foxnews.com/transcript/2015/11/06/bill-oreilly-what-has-happened-to-democratic-party/'
p91
aS'http://www.foxnews.com/transcript/2015/07/29/bill-oreilly-is-america-becoming-barbaric/'
p92
aS'http://www.foxnews.com/transcript/2015/05/29/bill-oreilly-decline-american-power-part-2/'
p93
aS'http://www.foxnews.com/transcript/2016/06/03/state-department-deletes-controversial-portion-video/'
p94
aS'http://www.foxnews.com/transcript/2016/06/01/bill-oreilly-murder-kate-steinle-and-congress/'
p95
aS'http://www.foxnews.com/transcript/2016/01/12/hillary-clinton-email-investigation-widens/'
p96
aS'http://www.foxnews.com/transcript/2015/08/28/bill-oreilly-killing-innocents/'
p97
aS'http://www.foxnews.com/transcript/2015/10/30/bill-oreilly-reaction-to-republican-debate/'
p98
aS'http://www.foxnews.com/transcript/2016/04/07/bill-oreilly-who-wants-to-be-president/'
p99
aS'http://www.foxnews.com/transcript/2015/05/15/bill-oreilly-poverty-president-obama-and-fox-news/'
p100
aS'http://www.foxnews.com/transcript/2016/06/01/political-chaos-in-california-continues/'
p101
aS'http://www.foxnews.com/transcript/2015/07/31/bill-oreilly-what-happened-to-and-justice-for-all/'
p102
aS'http://www.foxnews.com/transcript/2016/01/29/bill-oreilly-big-republican-debate-and-reaction-to-donald-trump-on-factor/'
p103
aS'http://www.foxnews.com/transcript/2015/11/12/marco-rubio-on-his-gop-debate-performance/'
p104
aS'http://www.foxnews.com/transcript/2015/11/02/battle-for-gop-nomination/'
p105
aS'http://www.foxnews.com/transcript/2015/07/07/bill-oreilly-vilification-donald-trump-over-illegal-immigration/'
p106
aS'http://www.foxnews.com/transcript/2015/07/22/carly-fiorina-enters-no-spin-zone/'
p107
aS'http://www.foxnews.com/transcript/2014/12/19/bill-oreilly-why-traditional-america-is-poised-to-come-back/'
p108
aS'http://www.foxnews.com/transcript/2015/03/16/growing-fallout-from-email-gate/'
p109
aS'http://www.foxnews.com/transcript/2016/02/27/analyzing-winners-and-losers-gop-debate-in-houston/'
p110
aS'http://www.foxnews.com/transcript/2016/02/15/future-ben-carson-campaign/'
p111
aS'http://www.foxnews.com/transcript/2016/02/19/pope-francis-criticizing-donald-trump/'
p112
aS'http://www.foxnews.com/transcript/2015/02/04/bill-oreilly-presidential-race-off-and-running/'
p113
aS'http://www.foxnews.com/transcript/2015/02/04/john-mccain-vs-code-pink/'
p114
aS'http://www.foxnews.com/transcript/2016/03/01/bill-oreilly-state-republican-party/'
p115
aS'http://www.foxnews.com/transcript/2015/02/20/bill-oreilly-more-terrorism-madness/'
p116
aS'http://www.foxnews.com/transcript/2015/03/10/bill-oreilly-hating-fox-news-there-is-reason-for-it/'
p117
aS'http://www.foxnews.com/transcript/2016/06/14/donald-trump-sounds-off-on-president-obama-and-isis/'
p118
aS'http://www.foxnews.com/transcript/2016/02/25/bill-oreilly-donald-trump-populist-campaign/'
p119
aS'http://www.foxnews.com/transcript/2015/06/12/bill-oreilly-younger-americans-disrespecting-authority/'
p120
aS'http://www.foxnews.com/transcript/2015/07/23/bill-oreilly-human-life-and-left-in-america/'
p121
aS'http://www.foxnews.com/transcript/2016/02/18/federal-government-vs-apple/'
p122
aS'http://www.foxnews.com/transcript/2016/08/03/donald-trump-responds-to-president-obama-criticism/'
p123
aS'http://www.foxnews.com/transcript/2015/04/22/christians-thrown-overboard-migrant-ship-left-to-drown/'
p124
aS'http://www.foxnews.com/transcript/2015/09/14/challenging-donald-trump/'
p125
aS'http://www.foxnews.com/transcript/2015/08/18/bill-oreilly-wild-presidential-race/'
p126
aS'http://www.foxnews.com/transcript/2015/09/01/bill-oreilly-how-donald-trump-campaign-is-actually-helping-democratic-party/'
p127
aS'http://www.foxnews.com/transcript/2015/05/28/truth-serum-congress-flying-first-class/'
p128
aS'http://www.foxnews.com/transcript/2015/06/11/truth-serum-how-radical-college-professors-get-hired/'
p129
aS'http://www.foxnews.com/transcript/2015/03/03/bill-oreilly-danger-overseas-getting-closer/'
p130
aS'http://www.foxnews.com/transcript/2015/04/03/bill-oreilly-war-on-christianity-getting-even-worse/'
p131
aS'http://www.foxnews.com/transcript/2015/02/03/bill-oreilly-modern-day-nazis-why-are-not-defeating-them/'
p132
aS'http://www.foxnews.com/transcript/2015/02/02/truth-about-jobs-in-america/'
p133
aS'http://www.foxnews.com/transcript/2015/12/18/mistrial-declared-for-officer-charged-in-freddie-gray-death/'
p134
aS'http://www.foxnews.com/transcript/2015/08/21/bill-oreilly-trumpians-versus-democrats/'
p135
aS'http://www.foxnews.com/transcript/2015/09/22/new-developments-in-bowe-bergdahl-case/'
p136
aS'http://www.foxnews.com/transcript/2016/01/26/will-michael-bloomberg-run-for-president/'
p137
aS'http://www.foxnews.com/transcript/2015/07/21/bill-oreilly-mr-obama-believes-justice-system-is-biased-against-minority/'
p138
aS'http://www.foxnews.com/transcript/2016/02/16/battle-for-supreme-court/'
p139
aS'http://www.foxnews.com/transcript/2015/01/22/national-debate-over-american-sniper/'
p140
aS'http://www.foxnews.com/transcript/2015/07/30/bill-oreilly-hey-republican-party-do-something/'
p141
aS'http://www.foxnews.com/transcript/2015/07/02/fighting-for-religious-freedom/'
p142
aS'http://www.foxnews.com/transcript/2016/01/28/donald-trump-weighs-in-on-gop-debate-controversy/'
p143
aS'http://www.foxnews.com/transcript/2015/10/30/ben-carson-defending-his-campaign-strategy/'
p144
aS'http://www.foxnews.com/transcript/2015/10/07/president-obama-to-visit-roseburg/'
p145
aS'http://www.foxnews.com/transcript/2016/07/28/mike-pence-obama-years-why-trump-message-is-resonating/'
p146
aS'http://www.foxnews.com/transcript/2015/03/06/is-ferguson-biased-against-african-americans/'
p147
aS'http://www.foxnews.com/transcript/2015/09/22/bill-oreilly-what-really-matters-in-presidential-race/'
p148
aS'http://www.foxnews.com/transcript/2016/06/10/bill-oreilly-donald-trump-only-chance-to-win-presidency/'
p149
aS'http://www.foxnews.com/transcript/2015/03/13/bill-oreilly-killing-cops/'
p150
aS'http://www.foxnews.com/transcript/2015/03/06/bill-oreilly-hillary-clinton-latest-drama/'
p151
aS'http://www.foxnews.com/transcript/2015/04/27/growing-accusations-corruption-against-hillary-clinton/'
p152
aS'http://www.foxnews.com/transcript/2015/05/04/baltimore-next-chapter/'
p153
aS'http://www.foxnews.com/transcript/2015/03/23/more-damaging-reporting-on-hillary-clinton/'
p154
aS'http://www.foxnews.com/transcript/2015/10/23/democratic-party-embracing-black-lives-matter/'
p155
aS'http://www.foxnews.com/transcript/2016/01/27/bill-oreilly-factor-coverage-presidential-election/'
p156
aS'http://www.foxnews.com/transcript/2015/10/01/bill-oreilly-are-americans-losing-it/'
p157
aS'http://www.foxnews.com/transcript/2016/07/21/bill-oreilly-presidential-race-and-race-in-america/'
p158
aS'http://www.foxnews.com/transcript/2015/05/20/bill-oreilly-sad-state-american-politics/'
p159
aS'http://www.foxnews.com/transcript/2015/03/03/media-wars-and-2016-elections/'
p160
aS'http://www.foxnews.com/transcript/2015/01/21/bill-oreilly-fighting-terrorism-is-now-top-priority/'
p161
aS'http://www.foxnews.com/transcript/2016/06/07/donald-trump-on-judge-comments/'
p162
aS'http://www.foxnews.com/transcript/2016/01/14/new-poll-gives-ben-carson-highest-favorability-rating/'
p163
aS'http://www.foxnews.com/transcript/2015/09/15/bill-oreilly-why-americans-are-so-angry/'
p164
aS'http://www.foxnews.com/transcript/2016/02/24/donald-trump-consults-with-rudy-giuliani/'
p165
aS'http://www.foxnews.com/transcript/2015/05/27/opposing-patriot-act/'
p166
aS'http://www.foxnews.com/transcript/2015/10/07/bill-oreilly-free-stuff-for-americans/'
p167
aS'http://www.foxnews.com/transcript/2015/10/08/bill-oreilly-violence-growing-in-america/'
p168
aS'http://www.foxnews.com/transcript/2016/08/02/bill-oreilly-will-president-obama-help-or-hurt-hillary-clinton-in-her-quest-to/'
p169
aS'http://www.foxnews.com/transcript/2016/08/04/white-house-on-defensive-over-iran-payment/'
p170
aS'http://www.foxnews.com/transcript/2015/05/01/is-media-inflaming-baltimore-situation/'
p171
aS'http://www.foxnews.com/transcript/2015/04/08/illegal-immigrant-children-surge-across-border/'
p172
aS'http://www.foxnews.com/transcript/2015/04/24/bill-oreilly-buying-access-to-clintons/'
p173
aS'http://www.foxnews.com/transcript/2015/11/05/bill-oreilly-harry-reid-kills-kate-law-at-least-for-now/'
p174
aS'http://www.foxnews.com/transcript/2016/07/18/turkey-attack-in-nice-and-campaign-2016/'
p175
aS'http://www.foxnews.com/transcript/2015/05/27/bill-oreilly-war-and-peace-in-usa/'
p176
aS'http://www.foxnews.com/transcript/2015/10/28/american-law-enforcement-under-siege/'
p177
aS'http://www.foxnews.com/transcript/2015/05/13/clinton-foundation-corporate-conflicts/'
p178
aS'http://www.foxnews.com/transcript/2015/03/11/bill-oreilly-hillary-clinton-explains/'
p179
aS'http://www.foxnews.com/transcript/2016/05/27/paper-publishes-controversial-transgender-bathroom-editorial/'
p180
aS'http://www.foxnews.com/transcript/2015/10/06/bill-oreilly-truth-about-gun-crime-in-america/'
p181
aS'http://www.foxnews.com/transcript/2016/07/26/bill-oreilly-trump-versus-obama-vision-america/'
p182
aS'http://www.foxnews.com/transcript/2015/06/19/nine-innocent-people-shot-dead-in-south-carolina/'
p183
aS'http://www.foxnews.com/transcript/2015/04/20/bill-oreilly-white-suppression-big-lie/'
p184
aS'http://www.foxnews.com/transcript/2015/04/30/will-voters-react-to-hillary-clinton-trouble/'
p185
aS'http://www.foxnews.com/transcript/2016/04/05/no-spin-zone-goes-to-cuba/'
p186
aS'http://www.foxnews.com/transcript/2016/06/07/bill-oreilly-counter-attacks-donald-trump/'
p187
aS'http://www.foxnews.com/transcript/2015/02/13/interviewing-david-axelrod/'
p188
aS'http://www.foxnews.com/transcript/2015/03/04/bill-oreilly-president-obama-under-tremendous-pressure-over-iran/'
p189
aS'http://www.foxnews.com/transcript/2015/12/04/bill-oreilly-more-americans-die-at-hands-muslim-extremists/'
p190
aS'http://www.foxnews.com/transcript/2015/10/22/san-francisco-will-not-change-illegal-immigration-policy/'
p191
aS'http://www.foxnews.com/transcript/2015/02/16/metta-world-peace-on-racial-division-in-america/'
p192
aS'http://www.foxnews.com/transcript/2016/02/01/bill-oreilly-iowa-dilemma/'
p193
aS'http://www.foxnews.com/transcript/2016/05/11/bill-oreilly-how-partisans-are-covering-trump-clinton-race/'
p194
aS'http://www.foxnews.com/transcript/2015/04/14/bill-oreilly-hillary-clinton-for-president/'
p195
aS'http://www.foxnews.com/transcript/2015/03/09/is-president-obama-conceding-too-much-to-iran/'
p196
aS'http://www.foxnews.com/transcript/2015/07/09/watters-world-sanctuary-city-edition/'
p197
aS'http://www.foxnews.com/transcript/2015/09/01/has-donald-trump-obscured-democratic-record/'
p198
aS'http://www.foxnews.com/transcript/2016/02/01/marco-rubio-explains-his-stance-on-illegal-immigration/'
p199
aS'http://www.foxnews.com/transcript/2014/12/23/cold-blooded-execution-two-nypd-officers/'
p200
aS'http://www.foxnews.com/transcript/2015/10/05/victims-oregon-shooting-fight-for-their-lives/'
p201
aS'http://www.foxnews.com/transcript/2015/10/12/bill-oreilly-president-obama-visit-to-killing-ground-in-oregon/'
p202
aS'http://www.foxnews.com/transcript/2015/05/13/bill-oreilly-changing-america/'
p203
aS'http://www.foxnews.com/transcript/2015/04/20/suzanne-somers-enters-no-spin-zone/'
p204
aS'http://www.foxnews.com/transcript/2016/03/10/bill-oreilly-fascism-and-donald-trump/'
p205
aS'http://www.foxnews.com/transcript/2016/02/05/bill-oreilly-brawl-in-new-hampshire/'
p206
aS'http://www.foxnews.com/transcript/2015/12/01/climate-change-chaos-in-paris/'
p207
aS'http://www.foxnews.com/transcript/2015/01/21/america-top-priorities-in-2015/'
p208
aS'http://www.foxnews.com/transcript/2015/12/04/isis-collaborators-in-usa/'
p209
aS'http://www.foxnews.com/transcript/2015/06/17/donald-trump-running-for-president/'
p210
aS'http://www.foxnews.com/transcript/2015/02/20/media-coverage-holy-war/'
p211
aS'http://www.foxnews.com/transcript/2016/05/06/bill-oreilly-handicapping-clinton-trump-race/'
p212
aS'http://www.foxnews.com/transcript/2015/06/16/bill-oreilly-hillary-clinton-for-president/'
p213
aS'http://www.foxnews.com/transcript/2016/01/18/marco-rubio-breaks-down-gop-debate/'
p214
aS'http://www.foxnews.com/transcript/2015/05/20/inside-bandidos-motorcycle-gang/'
p215
aS'http://www.foxnews.com/transcript/2016/06/08/bill-oreilly-did-hillary-clinton-catch-break-because-donald-trump-criticized/'
p216
aS'http://www.foxnews.com/transcript/2015/09/29/bill-oreilly-divided-republican-party/'
p217
aS'http://www.foxnews.com/transcript/2016/06/10/is-left-justifying-campaign-violence/'
p218
aS'http://www.foxnews.com/transcript/2015/05/21/veterans-against-isis/'
p219
aS'http://www.foxnews.com/transcript/2015/09/25/bill-oreilly-biggest-smear-so-far-in-presidential-campaign/'
p220
aS'http://www.foxnews.com/transcript/2016/04/05/bill-oreilly-white-grievance-and-republican-party/'
p221
aS'http://www.foxnews.com/transcript/2015/04/01/bill-oreilly-trusting-president-obama/'
p222
aS'http://www.foxnews.com/transcript/2016/03/01/how-will-super-tuesday-affect-trump-campaign/'
p223
aS'http://www.foxnews.com/transcript/2015/05/19/motorcycle-gang-violence-in-texas/'
p224
aS'http://www.foxnews.com/transcript/2015/11/09/bill-oreilly-scrutinizing-ben-carson/'
p225
aS'http://www.foxnews.com/transcript/2015/12/17/bill-oreilly-can-anyone-save-america/'
p226
aS'http://www.foxnews.com/transcript/2015/05/15/economic-hardship-in-america/'
p227
aS'http://www.foxnews.com/transcript/2015/12/24/deportations-drop-dramatically/'
p228
aS'http://www.foxnews.com/transcript/2016/05/27/bill-oreilly-how-much-trouble-is-hillary-clinton-really-in/'
p229
aS'http://www.foxnews.com/transcript/2016/05/09/is-iranian-nuke-deal-fraud/'
p230
aS'http://www.foxnews.com/transcript/2015/12/30/battle-between-donald-trump-and-clintons-escalates/'
p231
aS'http://www.foxnews.com/transcript/2015/08/17/2016-presidential-hopefulls-head-to-iowa/'
p232
aS'http://www.foxnews.com/transcript/2015/02/06/bill-oreilly-whatever-happened-to-human-rights/'
p233
aS'http://www.foxnews.com/transcript/2015/10/26/chris-christie-reacts-to-hillary-clinton-testimony/'
p234
aS'http://www.foxnews.com/transcript/2015/06/12/what-will-happen-to-brian-williams/'
p235
aS'http://www.foxnews.com/transcript/2015/04/07/bill-oreilly-trusting-president-obama-on-iran/'
p236
aS'http://www.foxnews.com/transcript/2015/12/29/ben-carson-on-mosque-surveillance/'
p237
aS'http://www.foxnews.com/transcript/2014/12/16/jeb-bush-2016/'
p238
aS'http://www.foxnews.com/transcript/2015/04/08/bill-oreilly-more-embarrassment-for-obama-administration-over-bowe-bergdahl/'
p239
aS'http://www.foxnews.com/transcript/2016/07/27/trump-talks-dnc-minimum-wage-climate-change-and-nato/'
p240
aS'http://www.foxnews.com/transcript/2015/04/10/accusations-that-rand-paul-is-mean-to-women/'
p241
aS'http://www.foxnews.com/transcript/2015/04/22/bill-oreilly-hillary-dilemma/'
p242
aS'http://www.foxnews.com/transcript/2015/12/07/stopping-home-grown-terror-threat/'
p243
aS'http://www.foxnews.com/transcript/2015/03/10/bill-clinton-defending-foreign-donations/'
p244
aS'http://www.foxnews.com/transcript/2015/03/12/rudy-giuliani-on-countering-isis/'
p245
aS'http://www.foxnews.com/transcript/2015/07/24/bill-oreilly-abortion-and-network-news/'
p246
aS'http://www.foxnews.com/transcript/2015/12/21/president-obama-gives-end-year-press-conference/'
p247
aS'http://www.foxnews.com/transcript/2015/05/28/bill-oreilly-liberal-versus-conservative-americans/'
p248
aS'http://www.foxnews.com/transcript/2015/02/05/bill-oreilly-muslim-world-strikes-back-kind/'
p249
aS'http://www.foxnews.com/transcript/2016/07/26/how-will-dnc-handle-illegal-immigration/'
p250
aS'http://www.foxnews.com/transcript/2016/06/09/why-does-illegal-immigration-chaos-continue-in-us/'
p251
aS'http://www.foxnews.com/transcript/2015/08/26/covering-hillary-clinton-vs-joe-biden/'
p252
aS'http://www.foxnews.com/transcript/2015/08/27/wdbj-news-team-shot-dead-on-live-tv/'
p253
aS'http://www.foxnews.com/transcript/2015/06/10/bill-oreilly-war-on-cops/'
p254
aS'http://www.foxnews.com/transcript/2015/01/20/beyonce-and-first-family/'
p255
aS'http://www.foxnews.com/transcript/2016/03/03/bill-oreilly-super-tuesday/'
p256
aS'http://www.foxnews.com/transcript/2015/03/24/bill-oreilly-is-obama-administration-losing-war-on-terror/'
p257
aS'http://www.foxnews.com/transcript/2016/02/11/donald-trump-on-trade-deficit-with-china/'
p258
aS'http://www.foxnews.com/transcript/2015/07/17/donald-trump-reacts-to-shooting-in-chattanooga/'
p259
aS'http://www.foxnews.com/transcript/2016/02/03/bill-oreilly-iowa-vote/'
p260
aS'http://www.foxnews.com/transcript/2015/04/13/iran-claims-us-is-lying-about-nuclear-deal/'
p261
aS'http://www.foxnews.com/transcript/2016/02/06/donald-trump-on-latest-polls/'
p262
aS'http://www.foxnews.com/transcript/2015/11/03/gop-candidates-calling-for-debate-format-changes/'
p263
aS'http://www.foxnews.com/transcript/2015/06/16/race-and-violent-crime-in-america/'
p264
aS'http://www.foxnews.com/transcript/2015/04/23/bill-oreilly-president-obama-believes-his-foreign-policy-is-working/'
p265
aS'http://www.foxnews.com/transcript/2016/03/08/bill-oreilly-factor-viewers-and-republican-race/'
p266
aS'http://www.foxnews.com/transcript/2015/07/20/is-obama-administration-soft-on-islamic-terror/'
p267
aS'http://www.foxnews.com/transcript/2015/01/20/bill-oreilly-president-obama-and-real-state-union/'
p268
aS'http://www.foxnews.com/transcript/2016/02/23/ted-cruz-on-his-illegal-immigration-stance/'
p269
aS'http://www.foxnews.com/transcript/2015/12/01/bill-oreilly-politics-and-murder/'
p270
aS'http://www.foxnews.com/transcript/2015/12/23/donald-trump-ramping-up-attacks-on-hillary-clinton/'
p271
aS'http://www.foxnews.com/transcript/2016/04/08/bill-oreilly-new-york-values/'
p272
aS'http://www.foxnews.com/transcript/2015/03/19/bill-oreilly-anti-capitalist-violence-on-display/'
p273
aS'http://www.foxnews.com/transcript/2015/09/23/bill-oreilly-is-pope-left-wing-guy/'
p274
aS'http://www.foxnews.com/transcript/2015/06/23/bill-oreilly-rand-paul-wants-to-put-money-in-your-pocket/'
p275
aS'http://www.foxnews.com/transcript/2016/06/16/bill-oreilly-do-something/'
p276
aS'http://www.foxnews.com/transcript/2015/07/15/bill-oreilly-enabling-evil/'
p277
aS'http://www.foxnews.com/transcript/2015/03/18/president-obama-liberal-legacy/'
p278
aS'http://www.foxnews.com/transcript/2016/02/22/final-push-for-gop-candidates-in-south-carolina/'
p279
aS'http://www.foxnews.com/transcript/2015/10/14/bill-oreilly-big-democratic-debate/'
p280
aS'http://www.foxnews.com/transcript/2015/06/22/bill-oreilly-analyzing-charleston-terror-attack/'
p281
aS'http://www.foxnews.com/transcript/2015/03/04/hillary-clinton-email-controversy/'
p282
aS'http://www.foxnews.com/transcript/2015/09/16/donald-trump-continues-to-lead-gop-presidential-field/'
p283
aS'http://www.foxnews.com/transcript/2015/06/18/bill-oreilly-perhaps-best-reason-should-all-leave-united-states-right-now/'
p284
aS'http://www.foxnews.com/transcript/2016/02/04/bill-oreilly-hurting-ben-carson-campaign/'
p285
aS'http://www.foxnews.com/transcript/2015/02/09/president-obama-comparing-crusades-to-muslim-terror/'
p286
aS'http://www.foxnews.com/transcript/2015/04/03/nuclear-talks-with-iran-and-indiana-religious-freedom-law/'
p287
aS'http://www.foxnews.com/transcript/2015/09/16/bill-oreilly-dramatic-muslim-invasion/'
p288
aS'http://www.foxnews.com/transcript/2016/07/25/bill-oreilly-on-rampage-in-munich/'
p289
aS'http://www.foxnews.com/transcript/2015/02/19/bill-oreilly-judeo-christian-philosophy-versus-jihad/'
p290
aS'http://www.foxnews.com/transcript/2015/03/25/glenn-beck-leaving-republican-party/'
p291
aS'http://www.foxnews.com/transcript/2015/09/23/would-voters-support-muslim-american-president/'
p292
aS'http://www.foxnews.com/transcript/2015/04/07/ncis-report-on-bowe-bergdahl-raises-new-questions/'
p293
aS'http://www.foxnews.com/transcript/2015/09/28/john-boehner-announces-his-resignation/'
p294
aS'http://www.foxnews.com/transcript/2015/07/30/sarah-palin-makes-provocative-comparison/'
p295
aS'http://www.foxnews.com/transcript/2015/11/06/politicians-and-pundits-going-on-entertainment-programs/'
p296
aS'http://www.foxnews.com/transcript/2015/03/26/bill-oreilly-sergeant-bowe-bergdahl-will-be-charged-with-desertion-and-other/'
p297
aS'http://www.foxnews.com/transcript/2016/02/24/bill-oreilly-covering-presidential-race/'
p298
aS'http://www.foxnews.com/transcript/2016/05/26/state-department-claims-clinton-to-blame-for-email-misuse/'
p299
aS'http://www.foxnews.com/transcript/2014/12/15/confronting-president-obama/'
p300
aS'http://www.foxnews.com/transcript/2015/06/09/bill-oreilly-more-danger-for-americans/'
p301
aS'http://www.foxnews.com/transcript/2016/01/28/donald-trump-weighs-in-on-gop-debate-controversy-part-ii/'
p302
aS'http://www.foxnews.com/transcript/2016/06/14/bill-oreilly-aftermath-orlando-massacre/'
p303
aS'http://www.foxnews.com/transcript/2015/07/09/bill-oreilly-will-feds-finally-hold-san-francisco-accountable/'
p304
aS'http://www.foxnews.com/transcript/2016/03/07/election-2016-gop-debate-fallout/'
p305
aS'http://www.foxnews.com/transcript/2015/01/22/bill-oreilly-world-according-to-president-obama/'
p306
aS'http://www.foxnews.com/transcript/2015/02/18/white-house-neglecting-major-terror-details/'
p307
aS'http://www.foxnews.com/transcript/2016/02/12/bill-oreilly-fairness-in-news-coverage-presidential-race/'
p308
aS'http://www.foxnews.com/transcript/2016/03/08/nancy-reagan-legacy/'
p309
aS'http://www.foxnews.com/transcript/2014/12/17/is-america-unjust-nation/'
p310
aS'http://www.foxnews.com/transcript/2015/04/09/bill-oreilly-continuing-christian-controversy-in-america/'
p311
aS'http://www.foxnews.com/transcript/2015/05/26/ted-cruz-confronts-local-reporter/'
p312
aS'http://www.foxnews.com/transcript/2015/11/03/bill-oreilly-sympathy-for-drug-dealers/'
p313
aS'http://www.foxnews.com/transcript/2016/05/12/clinton-takes-in-thousands-dollars-from-doj-employees/'
p314
aS'http://www.foxnews.com/transcript/2015/04/15/department-defense-offering-sexism-learning-course/'
p315
aS'http://www.foxnews.com/transcript/2015/04/02/harry-reid-attack-on-romney-tax-record/'
p316
aS'http://www.foxnews.com/transcript/2016/01/14/bill-oreilly-my-state-union-message-to-president/'
p317
aS'http://www.foxnews.com/transcript/2015/04/17/bill-oreilly-hillary-clinton-on-campaign-trail/'
p318
aS'http://www.foxnews.com/transcript/2015/04/09/south-carolina-police-officer-charged-with-murder/'
p319
aS'http://www.foxnews.com/transcript/2015/08/19/bill-oreilly-is-american-justice-system-on-verge-collapse/'
p320
aS'http://www.foxnews.com/transcript/2016/05/24/bill-oreilly-most-americans-dont-like-their-presidential-candidates/'
p321
aS'http://www.foxnews.com/transcript/2015/02/13/bill-oreilly-are-safe/'
p322
aS'http://www.foxnews.com/transcript/2015/07/28/bill-oreilly-is-senate-looking-out-for-us/'
p323
aS'http://www.foxnews.com/transcript/2015/03/02/eric-holder-and-race-card/'
p324
aS'http://www.foxnews.com/transcript/2015/05/14/bill-oreilly-is-president-obama-sexist-guy/'
p325
aS'http://www.foxnews.com/transcript/2015/05/22/bill-oreilly-president-obama-military-and-climate-change/'
p326
aS'http://www.foxnews.com/transcript/2015/09/18/ben-carson-foreign-policy-strategy/'
p327
aS'http://www.foxnews.com/transcript/2015/03/31/bill-oreilly-why-left-does-not-want-bowe-bergdahl-punished/'
p328
aS'http://www.foxnews.com/transcript/2015/06/11/bill-oreilly-back-to-iraq/'
p329
aS'http://www.foxnews.com/transcript/2016/05/23/will-gop-unite-to-defeat-hillary-clinton/'
p330
aS'http://www.foxnews.com/transcript/2015/01/19/truth-about-fighting-jihad/'
p331
aS'http://www.foxnews.com/transcript/2015/12/18/bill-oreilly-donald-trump-secret-strategy/'
p332
aS'http://www.foxnews.com/transcript/2016/03/04/bill-oreilly-republican-party-now-in-crisis/'
p333
aS'http://www.foxnews.com/transcript/2015/09/30/donald-trump-returns-to-factor/'
p334
aS'http://www.foxnews.com/transcript/2016/01/29/media-reaction-to-donald-trump-on-factor/'
p335
aS'http://www.foxnews.com/transcript/2015/11/04/bill-oreilly-is-usa-in-good-shape-or-going-down-drain/'
p336
aS'http://www.foxnews.com/transcript/2015/10/27/bill-oreilly-big-lies/'
p337
aS'http://www.foxnews.com/transcript/2016/02/09/who-has-momentum-going-into-new-hampshire-primary/'
p338
aS'http://www.foxnews.com/transcript/2016/06/15/bill-oreilly-acceptable-losses/'
p339
aS'http://www.foxnews.com/transcript/2015/03/20/bill-oreilly-seeking-attention-american-voter/'
p340
aS'http://www.foxnews.com/transcript/2015/10/01/is-pentagon-rebelling-against-president-obama/'
p341
aS'http://www.foxnews.com/transcript/2015/02/02/bill-oreilly-romney-says-no/'
p342
aS'http://www.foxnews.com/transcript/2015/11/25/sympathy-for-syrian-refugees/'
p343
aS'http://www.foxnews.com/transcript/2016/02/03/what-next-for-ben-carson-campaign/'
p344
aS'http://www.foxnews.com/transcript/2016/07/20/bill-oreilly-how-donald-trump-can-indeed-win-presidency/'
p345
aS'http://www.foxnews.com/transcript/2016/05/12/bill-oreilly-trouble-for-hillary-clinton/'
p346
aS'http://www.foxnews.com/transcript/2015/10/13/far-left-attacking-ben-carson-faith/'
p347
aS'http://www.foxnews.com/transcript/2015/11/11/bill-oreilly-rise-fascism-on-american-college-campuses/'
p348
aS'http://www.foxnews.com/transcript/2014/12/17/bill-oreilly-how-liberalism-is-affecting-all-us/'
p349
aS'http://www.foxnews.com/transcript/2014/12/18/bill-oreilly-why-some-black-americans-dislike-their-country/'
p350
aS'http://www.foxnews.com/transcript/2015/08/26/bill-oreilly-joe-biden-for-president/'
p351
aS'http://www.foxnews.com/transcript/2015/08/04/first-republican-presidential-debate/'
p352
aS'http://www.foxnews.com/transcript/2015/10/12/mike-huckabee-touring-southern-border/'
p353
aS'http://www.foxnews.com/transcript/2015/06/17/bill-oreilly-why-poor-and-working-class-americans-are-being-kept-down/'
p354
aS'http://www.foxnews.com/transcript/2015/04/29/unrest-in-baltimore/'
p355
aS'http://www.foxnews.com/transcript/2015/02/16/bill-oreilly-three-muslims-murdered-in-north-carolina-was-it-hate-crime/'
p356
aS'http://www.foxnews.com/transcript/2016/04/08/ted-cruz-on-new-york-primary/'
p357
aS'http://www.foxnews.com/transcript/2015/08/04/bill-oreilly-problem-with-liberalism/'
p358
aS'http://www.foxnews.com/transcript/2015/05/01/bill-oreilly-baltimore-rioting-now-leading-to-madness/'
p359
aS'http://www.foxnews.com/transcript/2016/04/06/bill-oreilly-big-night-for-republican-party-in-particular/'
p360
aS'http://www.foxnews.com/transcript/2015/07/15/deal-reached-with-iran-over-nuclear-weapons/'
p361
aS'http://www.foxnews.com/transcript/2015/07/14/supporting-kate-law/'
p362
aS'http://www.foxnews.com/transcript/2016/08/01/was-hillary-dnc-speech-effective/'
p363
aS'http://www.foxnews.com/transcript/2015/11/05/fbi-investigation-into-hillary-clinton-email-server/'
p364
aS'http://www.foxnews.com/transcript/2015/07/03/bill-oreilly-hillary-clinton-and-press/'
p365
aS'http://www.foxnews.com/transcript/2015/12/08/bill-oreilly-why-obama-administration-is-losing-war-on-terror/'
p366
aS'http://www.foxnews.com/transcript/2016/01/18/bill-oreilly-lively-republican-debate/'
p367
aS'http://www.foxnews.com/transcript/2016/05/25/bill-oreilly-americans-and-money/'
p368
aS'http://www.foxnews.com/transcript/2016/06/16/paul-ryan-enters-no-spin-zone/'
p369
aS'http://www.foxnews.com/transcript/2016/02/10/bill-oreilly-new-hampshire-vote/'
p370
aS'http://www.foxnews.com/transcript/2015/09/02/bill-oreilly-family-kate-steinle-plans-to-sue-city-and-county-san-francisco/'
p371
aS'http://www.foxnews.com/transcript/2016/07/29/bill-oreilly-party-love-vs-party-hate/'
p372
aS'http://www.foxnews.com/transcript/2015/06/19/bill-oreilly-bad-day-for-america/'
p373
aS'http://www.foxnews.com/transcript/2015/02/05/jesse-ventura-compares-chris-kyle-to-nazi-fighters/'
p374
aS'http://www.foxnews.com/transcript/2015/04/29/bill-oreilly-who-is-big-loser-in-baltimore-riots/'
p375
aS'http://www.foxnews.com/transcript/2015/08/19/donald-trump-immigration-plan/'
p376
aS'http://www.foxnews.com/transcript/2015/10/13/bill-oreilly-president-obama-revealing-himself/'
p377
aS'http://www.foxnews.com/transcript/2015/11/25/bill-oreilly-is-world-war-getting-closer/'
p378
aS'http://www.foxnews.com/transcript/2015/07/02/bill-oreilly-are-religious-americans-in-danger/'
p379
aS'http://www.foxnews.com/transcript/2016/02/05/analyzing-coverage-iowa-caucus/'
p380
aS'http://www.foxnews.com/transcript/2015/02/19/religious-leaders-demanding-action-against-isis/'
p381
aS'http://www.foxnews.com/transcript/2015/04/02/bill-oreilly-religious-rights-vs-constitution/'
p382
aS'http://www.foxnews.com/transcript/2015/08/20/truth-serum-minors-illegally-crossing-border/'
p383
aS'http://www.foxnews.com/transcript/2015/10/23/bill-oreilly-hillary-clinton-is-telling-truth-about-benghazi-libya/'
p384
aS'http://www.foxnews.com/transcript/2015/02/11/bill-oreilly-another-american-killed-by-isis-savages/'
p385
aS'http://www.foxnews.com/transcript/2016/05/24/donald-trump-plan-to-fight-terrorism/'
p386
aS'http://www.foxnews.com/transcript/2015/03/18/bill-oreilly-president-obama-defines-isis/'
p387
aS'http://www.foxnews.com/transcript/2015/07/28/mike-huckabee-sounds-off-on-iran-nuke-deal/'
p388
aS'http://www.foxnews.com/transcript/2015/11/12/bill-oreilly-post-debate-blues/'
p389
aS'http://www.foxnews.com/transcript/2015/07/13/bill-oreilly-funeral-kate-steinle/'
p390
aS'http://www.foxnews.com/transcript/2015/09/30/bill-oreilly-will-kate-law-pass-in-washington/'
p391
aS'http://www.foxnews.com/transcript/2015/07/01/is-america-racist-nation/'
p392
aS'http://www.foxnews.com/transcript/2016/01/15/fallout-from-iran-detaining-10-us-sailors/'
p393
aS'http://www.foxnews.com/transcript/2015/06/18/investigating-clinton-foundation/'
p394
aS'http://www.foxnews.com/transcript/2016/04/06/tavis-smiley-reacts-to-2016-presidential-politics/'
p395
aS'http://www.foxnews.com/transcript/2016/06/02/surge-illegal-aliens-crossing-border/'
p396
aS'http://www.foxnews.com/transcript/2015/08/21/assessing-black-lives-matter-agenda/'
p397
aS'http://www.foxnews.com/transcript/2015/04/24/does-president-obama-have-problem-with-christians/'
p398
aS'http://www.foxnews.com/transcript/2016/06/13/bill-oreilly-terror-in-orlando-florida/'
p399
aS'http://www.foxnews.com/transcript/2015/11/04/analyzing-latest-republican-polling-numbers/'
p400
aS'http://www.foxnews.com/transcript/2015/10/28/bill-oreilly-shocking-reports-about-your-money/'
p401
aS'http://www.foxnews.com/transcript/2016/02/12/marco-rubio-on-his-south-carolina-strategy/'
p402
aS'http://www.foxnews.com/transcript/2015/04/23/clinton-foundation-donations-brought-under-scrutiny/'
p403
aS'http://www.foxnews.com/transcript/2015/03/25/ted-cruz-for-president/'
p404
aS'http://www.foxnews.com/transcript/2015/09/24/bill-oreilly-pope-president-obama-and-protecting-helpless/'
p405
aS'http://www.foxnews.com/transcript/2015/07/16/bill-oreilly-president-obama-defending-iranian-nuke-deal-and-other/'
p406
aS'http://www.foxnews.com/transcript/2015/05/14/marco-rubio-outlines-foreign-policy-doctrine/'
p407
aS'http://www.foxnews.com/transcript/2015/02/17/putting-blame-on-wrong-villain/'
p408
aS'http://www.foxnews.com/transcript/2015/09/17/ted-cruz-post-debate-response/'
p409
aS'http://www.foxnews.com/transcript/2015/03/30/should-bowe-bergdahl-be-prosecuted-for-desertion/'
p410
aS'http://www.foxnews.com/transcript/2015/02/11/gary-sinise-enters-no-spin-zone/'
p411
aS'http://www.foxnews.com/transcript/2015/09/15/kim-davis-returns-to-work/'
p412
aS'http://www.foxnews.com/transcript/2015/02/03/confronting-anti-semitism-and-jihadists/'
p413
aS'http://www.foxnews.com/transcript/2016/02/04/president-obama-visits-his-first-us-mosque/'
p414
aS'http://www.foxnews.com/transcript/2015/12/02/truth-serum-muslims-celebrating-after-11-attack/'
p415
aS'http://www.foxnews.com/transcript/2015/07/03/jimmy-carter-criticizes-president-obama-foreign-policy/'
p416
aS'http://www.foxnews.com/transcript/2015/06/09/how-should-gop-approach-immigration/'
p417
aS'http://www.foxnews.com/transcript/2015/03/13/how-media-is-reporting-email-gate/'
p418
aS'http://www.foxnews.com/transcript/2015/05/19/bill-oreilly-finally-usa-attacks-isis-on-ground/'
p419
aS'http://www.foxnews.com/transcript/2015/07/29/donald-trump-and-media/'
p420
aS'http://www.foxnews.com/transcript/2016/01/27/ted-cruz-on-his-campaign-ahead-iowa-caucuses/'
p421
aS'http://www.foxnews.com/transcript/2016/08/04/bill-oreilly-what-folks-think-about-trump-campaign/'
p422
aS'http://www.foxnews.com/transcript/2016/01/13/man-charged-with-attempted-murder-in-police-shooting/'
p423
aS'http://www.foxnews.com/transcript/2015/04/01/hillary-clinton-slipping-in-swing-states/'
p424
aS'http://www.foxnews.com/transcript/2016/05/10/bill-oreilly-justice-obama-and-trump/'
p425
aS'http://www.foxnews.com/transcript/2015/05/12/how-left-is-silencing-free-speech/'
p426
aS'http://www.foxnews.com/transcript/2015/03/05/illegal-immigrants-and-crime/'
p427
aS'http://www.foxnews.com/transcript/2015/09/25/muslim-americans-and-ben-carson/'
p428
aS'http://www.foxnews.com/transcript/2015/07/22/bill-oreilly-anarchy-and-immigration-law/'
p429
aS'http://www.foxnews.com/transcript/2015/02/12/bill-oreilly-why-brian-williams-story-is-important-for-america/'
p430
aS'http://www.foxnews.com/transcript/2015/02/17/bill-oreilly-jv-doing-some-serious-damage/'
p431
aS'http://www.foxnews.com/transcript/2015/01/23/ferguson-justice-department-decision/'
p432
aS'http://www.foxnews.com/transcript/2015/08/20/bill-oreilly-storm-clouds-for-hillary-clinton/'
p433
aS'http://www.foxnews.com/transcript/2015/10/06/chris-christie-enters-no-spin-zone/'
p434
aS'http://www.foxnews.com/transcript/2015/07/14/kate-steinle-parents-share-her-legacy/'
p435
aS'http://www.foxnews.com/transcript/2015/02/09/bill-oreilly-is-president-obama-destroying-his-own-legacy/'
p436
aS'http://www.foxnews.com/transcript/2015/07/17/bill-oreilly-vicious-terror-attack-in-chattanooga-tennessee/'
p437
aS'http://www.foxnews.com/transcript/2015/04/15/bill-oreilly-matter-respect/'
p438
aS'http://www.foxnews.com/transcript/2015/04/20/jeb-bush-problem-and-isis-presence-in-iraq/'
p439
aS'http://www.foxnews.com/transcript/2015/08/18/road-to-2016-election-heats-up/'
p440
aS'http://www.foxnews.com/transcript/2015/04/30/bill-oreilly-truth-about-riots-in-baltimore-part-2/'
p441
aS'http://www.foxnews.com/transcript/2015/06/10/did-red-cross-mismanage-millions-donated-dollars/'
p442
aS'http://www.foxnews.com/transcript/2016/07/19/donald-trump-have-to-demand-law-and-order/'
p443
aS'http://www.foxnews.com/transcript/2016/06/08/can-hillary-clinton-persuade-her-doubters/'
p444
aS'http://www.foxnews.com/transcript/2015/12/17/donald-trump-breaks-down-his-debate-standing/'
p445
aS'http://www.foxnews.com/transcript/2015/03/20/gop-2016-israel-and-president-obama/'
p446
aS'http://www.foxnews.com/transcript/2015/10/27/far-left-falsehoods-impacting-american-lives/'
p447
aS'http://www.foxnews.com/transcript/2015/03/24/kelsey-grammer-enters-no-spin-zone/'
p448
aS'http://www.foxnews.com/transcript/2016/02/17/donald-trump-vs-ted-cruz/'
p449
aS'http://www.foxnews.com/transcript/2015/08/31/more-outrageous-comments-from-hillary-clinton/'
p450
a.