(lp0
S'//www.foxnews.com/about/privacy-policy/'
p1
aS'//www.foxnews.com/on-air/sunday-morning-futures/index.html'
p2
aS'//www.foxnews.com/on-air/fox-files/'
p3
aS'//www.foxnews.com'
p4
aS'//www.foxnews.com/on-air/on-the-record/'
p5
aS'//www.foxnews.com/on-air/the-five/'
p6
aS'//www.foxnews.com/on-air/oreilly/'
p7
aS'http://video.foxnews.com/v/5059566548001/watters-world-kates-law-at-dnc-edition'
p8
aS'//www.foxnews.com/on-air/hannity/'
p9
aS'//www.foxnews.com/on-air/americas-newsroom/'
p10
aS'http://www.billoreilly.com/pg/jsp/general/booksandprint.jsp'
p11
aS'/shows/the-oreilly-factor.html'
p12
aS'http://www.foxnews.com/shows/oreilly/transcripts.index.html?intcmp=subnav'
p13
aS'//www.foxnews.com/on-air/media-buzz/'
p14
aS'#'
p15
aS'//www.foxnews.com/on-air/fox-news-reporting/'
p16
aS'http://video.foxnews.com/v/5068920615001/dealing-with-insulting-people'
p17
aS'//www.foxnews.com/shows/fox-news-reporting.html'
p18
aS'//www.foxnews.com/on-air/fox-news-sunday/'
p19
aS'//www.foxnews.com/about/terms-of-use/'
p20
aS'//www.foxnews.com/on-air/fox-friends/'
p21
aS'http://video.foxnews.com/v/5055817764001/watters-world-whats-good-about-trump-edition'
p22
aS'http://video.foxnews.com/v/5067568152001/preview-upcoming-movie-killing-reagan'
p23
aS'http://video.foxnews.com/playlist/on-air-the-oreilly-factor/?intcmp=subnav'
p24
aS'//www.foxbusiness.com/'
p25
aS'//www.foxnews.com/on-air/justice-jeanine/'
p26
aS'http://www.foxnews.com/shows/the-oreilly-factor.html#about'
p27
aS'//www.foxnews.com/shows/fox-news-specials.html'
p28
aS'//www.foxnews.com/on-air/fox-friends/first'
p29
aS'http://www.foxnews.com/shows/the-oreilly-factor.html#tip'
p30
aS'//www.foxnews.com/shows/l-and-l'
p31
aS'//www.foxnews.com/fnctv/index.html'
p32
aS'//www.foxnews.com/on-air/fox-and-friends/index.html?page=weekend'
p33
aS'http://video.foxnews.com/v/5070283557001/hamilton-vs-burr-on-next-legends-lies'
p34
aS'//www.foxnews.com/shows/the-kelly-file.html'
p35
aS'//www.foxnews.com/on-air/fox-and-friends-first/'
p36
aS'http://www.foxnews.com/shows/the-oreilly-factor.html#watters'
p37
aS'//www.foxnews.com/on-air/war-stories/'
p38
aS'http://video.foxnews.com/v/5067568151001/watters-world-conventions-edition'
p39
aS'//www.foxnews.com/on-air/shepard-smith/'
p40
aS'http://www.billoreilly.com?intcmp=subnav'
p41
aS'//www.foxnews.com/on-air/journal-editorial-report/'
p42
aS'//www.foxnews.com/shows/greg-gutfeld-show'
p43
aS'//www.foxnews.com/'
p44
aS'//www.foxnews.com/on-air/cost-of-freedom/'
p45
aS'//www.foxnews.com/on-air/red-eye/'
p46
aS'//www.foxnews.com/on-air/the-real-story-with-gretchen-carlson'
p47
aS'http://www.foxnews.com/shows/the-oreilly-factor.html#talking'
p48
aS'//www.foxnews.com/on-air/your-world-cavuto/'
p49
aS'//www.foxnews.com/on-air/americas-news-hq/'
p50
aS'//www.foxnews.com/on-air/happening-now/'
p51
aS'//www.foxnews.com/on-air/outnumbered/'
p52
aS'//www.foxnews.com/on-air/the-real-story'
p53
aS'//www.foxnews.com/on-air/fox-friends/index.html?page=weekend'
p54
aS'//www.foxnews.com/on-air/geraldo/'
p55
aS'//www.foxnews.com/on-air/a-healthy-you-carol-alt'
p56
aS'//www.foxnews.com/shows/the-property-man/'
p57
aS'//www.foxnews.com/on-air/special-report/'
p58
aS'http://www.foxnews.com/shows/the-oreilly-factor.html#tonight'
p59
a.